Archive member included to satisfy reference by file (symbol)

/home/atmark/optee-build/imx-boot/imx-optee-os/out/export-ta_arm64/lib/libutils.a(bget_malloc.o)
                              ./server_ta.o (free)
/home/atmark/optee-build/imx-boot/imx-optee-os/out/export-ta_arm64/lib/libutils.a(strndup.o)
                              ./server_ta.o (strndup)
/home/atmark/optee-build/imx-boot/imx-optee-os/out/export-ta_arm64/lib/libutils.a(memcpy.o)
                              ./server_ta.o (memcpy)
/home/atmark/optee-build/imx-boot/imx-optee-os/out/export-ta_arm64/lib/libutils.a(memset.o)
                              /home/atmark/optee-build/imx-boot/imx-optee-os/out/export-ta_arm64/lib/libutils.a(bget_malloc.o) (memset)
/home/atmark/optee-build/imx-boot/imx-optee-os/out/export-ta_arm64/lib/libutils.a(strnlen.o)
                              /home/atmark/optee-build/imx-boot/imx-optee-os/out/export-ta_arm64/lib/libutils.a(strndup.o) (strnlen)
/home/atmark/optee-build/imx-boot/imx-optee-os/out/export-ta_arm64/lib/libutils.a(trace.o)
                              ./server_ta.o (trace_printf)
/home/atmark/optee-build/imx-boot/imx-optee-os/out/export-ta_arm64/lib/libutils.a(snprintk.o)
                              /home/atmark/optee-build/imx-boot/imx-optee-os/out/export-ta_arm64/lib/libutils.a(trace.o) (vsnprintk)
/home/atmark/optee-build/imx-boot/imx-optee-os/out/export-ta_arm64/lib/libutils.a(memchr.o)
                              /home/atmark/optee-build/imx-boot/imx-optee-os/out/export-ta_arm64/lib/libutils.a(snprintk.o) (memchr)
/home/atmark/optee-build/imx-boot/imx-optee-os/out/export-ta_arm64/lib/libutils.a(strlen.o)
                              /home/atmark/optee-build/imx-boot/imx-optee-os/out/export-ta_arm64/lib/libutils.a(snprintk.o) (strlen)
/home/atmark/optee-build/imx-boot/imx-optee-os/out/export-ta_arm64/lib/libutee.a(assert.o)
                              /home/atmark/optee-build/imx-boot/imx-optee-os/out/export-ta_arm64/lib/libutils.a(bget_malloc.o) (_assert_log)
/home/atmark/optee-build/imx-boot/imx-optee-os/out/export-ta_arm64/lib/libutee.a(trace_ext.o)
                              /home/atmark/optee-build/imx-boot/imx-optee-os/out/export-ta_arm64/lib/libutils.a(trace.o) (trace_ext_puts)
/home/atmark/optee-build/imx-boot/imx-optee-os/out/export-ta_arm64/lib/libutee.a(tee_api_operations.o)
                              /home/atmark/optee-build/imx-boot/imx-optee-os/out/export-ta_arm64/lib/libutils.a(bget_malloc.o) (rand)
/home/atmark/optee-build/imx-boot/imx-optee-os/out/export-ta_arm64/lib/libutee.a(tee_api_panic.o)
                              /home/atmark/optee-build/imx-boot/imx-optee-os/out/export-ta_arm64/lib/libutee.a(tee_api_operations.o) (TEE_Panic)
/home/atmark/optee-build/imx-boot/imx-optee-os/out/export-ta_arm64/lib/libutee.a(tee_tcpudp_socket.o)
                              ./server_ta.o (TEE_udpSocket)
/home/atmark/optee-build/imx-boot/imx-optee-os/out/export-ta_arm64/lib/libutee.a(utee_syscalls_a64.o)
                              /home/atmark/optee-build/imx-boot/imx-optee-os/out/export-ta_arm64/lib/libutee.a(assert.o) (_utee_panic)
/home/atmark/optee-build/imx-boot/imx-optee-os/out/export-ta_arm64/lib/libutee.a(user_ta_entry.o)
                              ./user_ta_header.o (__utee_entry)
/home/atmark/optee-build/imx-boot/imx-optee-os/out/export-ta_arm64/lib/libutee.a(abort.o)
                              /home/atmark/optee-build/imx-boot/imx-optee-os/out/export-ta_arm64/lib/libutee.a(user_ta_entry.o) (abort)
/home/atmark/optee-build/imx-boot/imx-optee-os/out/export-ta_arm64/lib/libutee.a(tee_api.o)
                              /home/atmark/optee-build/imx-boot/imx-optee-os/out/export-ta_arm64/lib/libutee.a(tee_api_panic.o) (TEE_CheckMemoryAccessRights)
/home/atmark/optee-build/imx-boot/imx-optee-os/out/export-ta_arm64/lib/libutee.a(tee_api_arith_mpi.o)
                              /home/atmark/optee-build/imx-boot/imx-optee-os/out/export-ta_arm64/lib/libutee.a(user_ta_entry.o) (_TEE_MathAPI_Init)
/home/atmark/optee-build/imx-boot/imx-optee-os/out/export-ta_arm64/lib/libutee.a(tee_api_objects.o)
                              /home/atmark/optee-build/imx-boot/imx-optee-os/out/export-ta_arm64/lib/libutee.a(tee_api_operations.o) (__utee_from_attr)
/home/atmark/optee-build/imx-boot/imx-optee-os/out/export-ta_arm64/lib/libutee.a(tee_socket_pta.o)
                              /home/atmark/optee-build/imx-boot/imx-optee-os/out/export-ta_arm64/lib/libutee.a(tee_tcpudp_socket.o) (__tee_socket_pta_open)
/home/atmark/optee-build/imx-boot/imx-optee-os/out/export-ta_arm64/lib/libutee.a(tee_system_pta.o)
                              /home/atmark/optee-build/imx-boot/imx-optee-os/out/export-ta_arm64/lib/libutee.a(tee_api.o) (tee_map_zi)
/home/atmark/optee-build/imx-boot/imx-optee-os/out/export-ta_arm64/lib/libutee.a(tcb.o)
                              /home/atmark/optee-build/imx-boot/imx-optee-os/out/export-ta_arm64/lib/libutee.a(user_ta_entry.o) (__utee_tcb_init)
/home/atmark/optee-build/imx-boot/imx-optee-os/out/export-ta_arm64/lib/libmbedtls.a(bignum.o)
                              /home/atmark/optee-build/imx-boot/imx-optee-os/out/export-ta_arm64/lib/libutee.a(tee_api_arith_mpi.o) (mbedtls_mpi_init_mempool)
/home/atmark/optee-build/imx-boot/imx-optee-os/out/export-ta_arm64/lib/libmbedtls.a(platform_util.o)
                              /home/atmark/optee-build/imx-boot/imx-optee-os/out/export-ta_arm64/lib/libmbedtls.a(bignum.o) (mbedtls_platform_zeroize)
/home/atmark/optee-build/imx-boot/imx-optee-os/out/export-ta_arm64/lib/libutils.a(snprintf.o)
                              /home/atmark/optee-build/imx-boot/imx-optee-os/out/export-ta_arm64/lib/libutee.a(trace_ext.o) (vsnprintf)
/home/atmark/optee-build/imx-boot/imx-optee-os/out/export-ta_arm64/lib/libutils.a(memmove.o)
                              /home/atmark/optee-build/imx-boot/imx-optee-os/out/export-ta_arm64/lib/libutee.a(tee_api.o) (memmove)
/home/atmark/optee-build/imx-boot/imx-optee-os/out/export-ta_arm64/lib/libutils.a(mempool.o)
                              /home/atmark/optee-build/imx-boot/imx-optee-os/out/export-ta_arm64/lib/libutee.a(tee_api_arith_mpi.o) (mempool_alloc_pool)
/home/atmark/optee-build/imx-boot/imx-optee-os/out/export-ta_arm64/lib/libutils.a(consttime_memcmp.o)
                              /home/atmark/optee-build/imx-boot/imx-optee-os/out/export-ta_arm64/lib/libutee.a(tee_api_operations.o) (consttime_memcmp)

破棄された入力セクション

 .group         0x0000000000000000        0xc ./server_ta.o
 .group         0x0000000000000000        0xc ./server_ta.o
 .group         0x0000000000000000        0xc ./server_ta.o
 .group         0x0000000000000000        0xc ./server_ta.o
 .group         0x0000000000000000        0xc ./server_ta.o
 .group         0x0000000000000000        0xc ./server_ta.o
 .group         0x0000000000000000        0xc ./server_ta.o
 .group         0x0000000000000000        0xc ./server_ta.o
 .group         0x0000000000000000        0xc ./server_ta.o
 .group         0x0000000000000000        0xc ./server_ta.o
 .group         0x0000000000000000        0xc ./server_ta.o
 .group         0x0000000000000000        0xc ./server_ta.o
 .group         0x0000000000000000        0xc ./server_ta.o
 .group         0x0000000000000000        0xc ./server_ta.o
 .group         0x0000000000000000        0xc ./server_ta.o
 .group         0x0000000000000000        0xc ./server_ta.o
 .group         0x0000000000000000        0xc ./server_ta.o
 .group         0x0000000000000000        0xc ./server_ta.o
 .group         0x0000000000000000        0xc ./server_ta.o
 .group         0x0000000000000000        0xc ./server_ta.o
 .group         0x0000000000000000        0xc ./server_ta.o
 .group         0x0000000000000000        0xc ./user_ta_header.o
 .group         0x0000000000000000        0xc ./user_ta_header.o
 .group         0x0000000000000000        0xc ./user_ta_header.o
 .group         0x0000000000000000        0xc ./user_ta_header.o
 .group         0x0000000000000000        0xc ./user_ta_header.o
 .group         0x0000000000000000        0xc ./user_ta_header.o
 .group         0x0000000000000000        0xc ./user_ta_header.o
 .group         0x0000000000000000        0xc ./user_ta_header.o
 .group         0x0000000000000000        0xc ./user_ta_header.o
 .group         0x0000000000000000        0xc ./user_ta_header.o
 .group         0x0000000000000000        0xc ./user_ta_header.o
 .group         0x0000000000000000        0xc ./user_ta_header.o
 .group         0x0000000000000000        0xc ./user_ta_header.o
 .group         0x0000000000000000        0xc ./user_ta_header.o
 .group         0x0000000000000000        0xc ./user_ta_header.o
 .group         0x0000000000000000        0xc ./user_ta_header.o
 .group         0x0000000000000000        0xc ./user_ta_header.o
 .debug_macro   0x0000000000000000       0xed ./user_ta_header.o
 .debug_macro   0x0000000000000000      0x9b3 ./user_ta_header.o
 .debug_macro   0x0000000000000000       0x7c ./user_ta_header.o
 .debug_macro   0x0000000000000000      0x1a7 ./user_ta_header.o
 .debug_macro   0x0000000000000000       0xc4 ./user_ta_header.o
 .debug_macro   0x0000000000000000       0x22 ./user_ta_header.o
 .debug_macro   0x0000000000000000      0x16d ./user_ta_header.o
 .debug_macro   0x0000000000000000       0x35 ./user_ta_header.o
 .debug_macro   0x0000000000000000       0x58 ./user_ta_header.o
 .debug_macro   0x0000000000000000       0x34 ./user_ta_header.o
 .debug_macro   0x0000000000000000       0x79 ./user_ta_header.o
 .debug_macro   0x0000000000000000       0xd6 ./user_ta_header.o
 .debug_macro   0x0000000000000000       0x46 ./user_ta_header.o
 .group         0x0000000000000000        0xc /home/atmark/optee-build/imx-boot/imx-optee-os/out/export-ta_arm64/lib/libutils.a(bget_malloc.o)
 .group         0x0000000000000000        0xc /home/atmark/optee-build/imx-boot/imx-optee-os/out/export-ta_arm64/lib/libutils.a(bget_malloc.o)
 .group         0x0000000000000000        0xc /home/atmark/optee-build/imx-boot/imx-optee-os/out/export-ta_arm64/lib/libutils.a(bget_malloc.o)
 .group         0x0000000000000000        0xc /home/atmark/optee-build/imx-boot/imx-optee-os/out/export-ta_arm64/lib/libutils.a(bget_malloc.o)
 .group         0x0000000000000000        0xc /home/atmark/optee-build/imx-boot/imx-optee-os/out/export-ta_arm64/lib/libutils.a(bget_malloc.o)
 .group         0x0000000000000000        0xc /home/atmark/optee-build/imx-boot/imx-optee-os/out/export-ta_arm64/lib/libutils.a(bget_malloc.o)
 .group         0x0000000000000000        0xc /home/atmark/optee-build/imx-boot/imx-optee-os/out/export-ta_arm64/lib/libutils.a(bget_malloc.o)
 .group         0x0000000000000000        0xc /home/atmark/optee-build/imx-boot/imx-optee-os/out/export-ta_arm64/lib/libutils.a(bget_malloc.o)
 .group         0x0000000000000000        0xc /home/atmark/optee-build/imx-boot/imx-optee-os/out/export-ta_arm64/lib/libutils.a(bget_malloc.o)
 .group         0x0000000000000000        0xc /home/atmark/optee-build/imx-boot/imx-optee-os/out/export-ta_arm64/lib/libutils.a(bget_malloc.o)
 .group         0x0000000000000000        0xc /home/atmark/optee-build/imx-boot/imx-optee-os/out/export-ta_arm64/lib/libutils.a(bget_malloc.o)
 .group         0x0000000000000000        0xc /home/atmark/optee-build/imx-boot/imx-optee-os/out/export-ta_arm64/lib/libutils.a(bget_malloc.o)
 .group         0x0000000000000000        0xc /home/atmark/optee-build/imx-boot/imx-optee-os/out/export-ta_arm64/lib/libutils.a(bget_malloc.o)
 .group         0x0000000000000000        0xc /home/atmark/optee-build/imx-boot/imx-optee-os/out/export-ta_arm64/lib/libutils.a(bget_malloc.o)
 .group         0x0000000000000000        0xc /home/atmark/optee-build/imx-boot/imx-optee-os/out/export-ta_arm64/lib/libutils.a(bget_malloc.o)
 .group         0x0000000000000000        0xc /home/atmark/optee-build/imx-boot/imx-optee-os/out/export-ta_arm64/lib/libutils.a(bget_malloc.o)
 .group         0x0000000000000000        0xc /home/atmark/optee-build/imx-boot/imx-optee-os/out/export-ta_arm64/lib/libutils.a(bget_malloc.o)
 .group         0x0000000000000000        0xc /home/atmark/optee-build/imx-boot/imx-optee-os/out/export-ta_arm64/lib/libutils.a(bget_malloc.o)
 .debug_macro   0x0000000000000000       0xed /home/atmark/optee-build/imx-boot/imx-optee-os/out/export-ta_arm64/lib/libutils.a(bget_malloc.o)
 .debug_macro   0x0000000000000000      0x16d /home/atmark/optee-build/imx-boot/imx-optee-os/out/export-ta_arm64/lib/libutils.a(bget_malloc.o)
 .debug_macro   0x0000000000000000       0x7c /home/atmark/optee-build/imx-boot/imx-optee-os/out/export-ta_arm64/lib/libutils.a(bget_malloc.o)
 .debug_macro   0x0000000000000000      0x1a7 /home/atmark/optee-build/imx-boot/imx-optee-os/out/export-ta_arm64/lib/libutils.a(bget_malloc.o)
 .debug_macro   0x0000000000000000       0xc4 /home/atmark/optee-build/imx-boot/imx-optee-os/out/export-ta_arm64/lib/libutils.a(bget_malloc.o)
 .debug_macro   0x0000000000000000       0x22 /home/atmark/optee-build/imx-boot/imx-optee-os/out/export-ta_arm64/lib/libutils.a(bget_malloc.o)
 .debug_macro   0x0000000000000000       0x2e /home/atmark/optee-build/imx-boot/imx-optee-os/out/export-ta_arm64/lib/libutils.a(bget_malloc.o)
 .debug_macro   0x0000000000000000       0x2d /home/atmark/optee-build/imx-boot/imx-optee-os/out/export-ta_arm64/lib/libutils.a(bget_malloc.o)
 .debug_macro   0x0000000000000000       0x16 /home/atmark/optee-build/imx-boot/imx-optee-os/out/export-ta_arm64/lib/libutils.a(bget_malloc.o)
 .debug_macro   0x0000000000000000       0x58 /home/atmark/optee-build/imx-boot/imx-optee-os/out/export-ta_arm64/lib/libutils.a(bget_malloc.o)
 .debug_macro   0x0000000000000000       0x34 /home/atmark/optee-build/imx-boot/imx-optee-os/out/export-ta_arm64/lib/libutils.a(bget_malloc.o)
 .debug_macro   0x0000000000000000       0xe1 /home/atmark/optee-build/imx-boot/imx-optee-os/out/export-ta_arm64/lib/libutils.a(bget_malloc.o)
 .group         0x0000000000000000        0xc /home/atmark/optee-build/imx-boot/imx-optee-os/out/export-ta_arm64/lib/libutils.a(strndup.o)
 .group         0x0000000000000000        0xc /home/atmark/optee-build/imx-boot/imx-optee-os/out/export-ta_arm64/lib/libutils.a(strndup.o)
 .group         0x0000000000000000        0xc /home/atmark/optee-build/imx-boot/imx-optee-os/out/export-ta_arm64/lib/libutils.a(strndup.o)
 .group         0x0000000000000000        0xc /home/atmark/optee-build/imx-boot/imx-optee-os/out/export-ta_arm64/lib/libutils.a(strndup.o)
 .group         0x0000000000000000        0xc /home/atmark/optee-build/imx-boot/imx-optee-os/out/export-ta_arm64/lib/libutils.a(strndup.o)
 .group         0x0000000000000000        0xc /home/atmark/optee-build/imx-boot/imx-optee-os/out/export-ta_arm64/lib/libutils.a(strndup.o)
 .group         0x0000000000000000        0xc /home/atmark/optee-build/imx-boot/imx-optee-os/out/export-ta_arm64/lib/libutils.a(strndup.o)
 .group         0x0000000000000000        0xc /home/atmark/optee-build/imx-boot/imx-optee-os/out/export-ta_arm64/lib/libutils.a(strndup.o)
 .group         0x0000000000000000        0xc /home/atmark/optee-build/imx-boot/imx-optee-os/out/export-ta_arm64/lib/libutils.a(strndup.o)
 .group         0x0000000000000000        0xc /home/atmark/optee-build/imx-boot/imx-optee-os/out/export-ta_arm64/lib/libutils.a(strndup.o)
 .group         0x0000000000000000        0xc /home/atmark/optee-build/imx-boot/imx-optee-os/out/export-ta_arm64/lib/libutils.a(strndup.o)
 .debug_macro   0x0000000000000000      0x62f /home/atmark/optee-build/imx-boot/imx-optee-os/out/export-ta_arm64/lib/libutils.a(strndup.o)
 .debug_macro   0x0000000000000000       0xed /home/atmark/optee-build/imx-boot/imx-optee-os/out/export-ta_arm64/lib/libutils.a(strndup.o)
 .debug_macro   0x0000000000000000      0x16d /home/atmark/optee-build/imx-boot/imx-optee-os/out/export-ta_arm64/lib/libutils.a(strndup.o)
 .debug_macro   0x0000000000000000       0x7c /home/atmark/optee-build/imx-boot/imx-optee-os/out/export-ta_arm64/lib/libutils.a(strndup.o)
 .debug_macro   0x0000000000000000      0x1a7 /home/atmark/optee-build/imx-boot/imx-optee-os/out/export-ta_arm64/lib/libutils.a(strndup.o)
 .debug_macro   0x0000000000000000       0xc4 /home/atmark/optee-build/imx-boot/imx-optee-os/out/export-ta_arm64/lib/libutils.a(strndup.o)
 .debug_macro   0x0000000000000000       0x22 /home/atmark/optee-build/imx-boot/imx-optee-os/out/export-ta_arm64/lib/libutils.a(strndup.o)
 .debug_macro   0x0000000000000000       0x2e /home/atmark/optee-build/imx-boot/imx-optee-os/out/export-ta_arm64/lib/libutils.a(strndup.o)
 .debug_macro   0x0000000000000000       0x2d /home/atmark/optee-build/imx-boot/imx-optee-os/out/export-ta_arm64/lib/libutils.a(strndup.o)
 .debug_macro   0x0000000000000000       0x16 /home/atmark/optee-build/imx-boot/imx-optee-os/out/export-ta_arm64/lib/libutils.a(strndup.o)
 .group         0x0000000000000000        0xc /home/atmark/optee-build/imx-boot/imx-optee-os/out/export-ta_arm64/lib/libutils.a(memcpy.o)
 .group         0x0000000000000000        0xc /home/atmark/optee-build/imx-boot/imx-optee-os/out/export-ta_arm64/lib/libutils.a(memcpy.o)
 .group         0x0000000000000000        0xc /home/atmark/optee-build/imx-boot/imx-optee-os/out/export-ta_arm64/lib/libutils.a(memcpy.o)
 .group         0x0000000000000000        0xc /home/atmark/optee-build/imx-boot/imx-optee-os/out/export-ta_arm64/lib/libutils.a(memcpy.o)
 .group         0x0000000000000000        0xc /home/atmark/optee-build/imx-boot/imx-optee-os/out/export-ta_arm64/lib/libutils.a(memcpy.o)
 .debug_macro   0x0000000000000000      0x62f /home/atmark/optee-build/imx-boot/imx-optee-os/out/export-ta_arm64/lib/libutils.a(memcpy.o)
 .debug_macro   0x0000000000000000      0x16d /home/atmark/optee-build/imx-boot/imx-optee-os/out/export-ta_arm64/lib/libutils.a(memcpy.o)
 .debug_macro   0x0000000000000000       0x16 /home/atmark/optee-build/imx-boot/imx-optee-os/out/export-ta_arm64/lib/libutils.a(memcpy.o)
 .group         0x0000000000000000        0xc /home/atmark/optee-build/imx-boot/imx-optee-os/out/export-ta_arm64/lib/libutils.a(memset.o)
 .group         0x0000000000000000        0xc /home/atmark/optee-build/imx-boot/imx-optee-os/out/export-ta_arm64/lib/libutils.a(memset.o)
 .group         0x0000000000000000        0xc /home/atmark/optee-build/imx-boot/imx-optee-os/out/export-ta_arm64/lib/libutils.a(memset.o)
 .group         0x0000000000000000        0xc /home/atmark/optee-build/imx-boot/imx-optee-os/out/export-ta_arm64/lib/libutils.a(memset.o)
 .group         0x0000000000000000        0xc /home/atmark/optee-build/imx-boot/imx-optee-os/out/export-ta_arm64/lib/libutils.a(memset.o)
 .debug_macro   0x0000000000000000      0x62f /home/atmark/optee-build/imx-boot/imx-optee-os/out/export-ta_arm64/lib/libutils.a(memset.o)
 .debug_macro   0x0000000000000000       0x7c /home/atmark/optee-build/imx-boot/imx-optee-os/out/export-ta_arm64/lib/libutils.a(memset.o)
 .debug_macro   0x0000000000000000      0x16d /home/atmark/optee-build/imx-boot/imx-optee-os/out/export-ta_arm64/lib/libutils.a(memset.o)
 .debug_macro   0x0000000000000000       0x16 /home/atmark/optee-build/imx-boot/imx-optee-os/out/export-ta_arm64/lib/libutils.a(memset.o)
 .group         0x0000000000000000        0xc /home/atmark/optee-build/imx-boot/imx-optee-os/out/export-ta_arm64/lib/libutils.a(strnlen.o)
 .group         0x0000000000000000        0xc /home/atmark/optee-build/imx-boot/imx-optee-os/out/export-ta_arm64/lib/libutils.a(strnlen.o)
 .group         0x0000000000000000        0xc /home/atmark/optee-build/imx-boot/imx-optee-os/out/export-ta_arm64/lib/libutils.a(strnlen.o)
 .group         0x0000000000000000        0xc /home/atmark/optee-build/imx-boot/imx-optee-os/out/export-ta_arm64/lib/libutils.a(strnlen.o)
 .group         0x0000000000000000        0xc /home/atmark/optee-build/imx-boot/imx-optee-os/out/export-ta_arm64/lib/libutils.a(strnlen.o)
 .debug_macro   0x0000000000000000      0x62f /home/atmark/optee-build/imx-boot/imx-optee-os/out/export-ta_arm64/lib/libutils.a(strnlen.o)
 .debug_macro   0x0000000000000000       0x7c /home/atmark/optee-build/imx-boot/imx-optee-os/out/export-ta_arm64/lib/libutils.a(strnlen.o)
 .debug_macro   0x0000000000000000      0x16d /home/atmark/optee-build/imx-boot/imx-optee-os/out/export-ta_arm64/lib/libutils.a(strnlen.o)
 .debug_macro   0x0000000000000000       0x16 /home/atmark/optee-build/imx-boot/imx-optee-os/out/export-ta_arm64/lib/libutils.a(strnlen.o)
 .group         0x0000000000000000        0xc /home/atmark/optee-build/imx-boot/imx-optee-os/out/export-ta_arm64/lib/libutils.a(trace.o)
 .group         0x0000000000000000        0xc /home/atmark/optee-build/imx-boot/imx-optee-os/out/export-ta_arm64/lib/libutils.a(trace.o)
 .group         0x0000000000000000        0xc /home/atmark/optee-build/imx-boot/imx-optee-os/out/export-ta_arm64/lib/libutils.a(trace.o)
 .group         0x0000000000000000        0xc /home/atmark/optee-build/imx-boot/imx-optee-os/out/export-ta_arm64/lib/libutils.a(trace.o)
 .group         0x0000000000000000        0xc /home/atmark/optee-build/imx-boot/imx-optee-os/out/export-ta_arm64/lib/libutils.a(trace.o)
 .group         0x0000000000000000        0xc /home/atmark/optee-build/imx-boot/imx-optee-os/out/export-ta_arm64/lib/libutils.a(trace.o)
 .group         0x0000000000000000        0xc /home/atmark/optee-build/imx-boot/imx-optee-os/out/export-ta_arm64/lib/libutils.a(trace.o)
 .group         0x0000000000000000        0xc /home/atmark/optee-build/imx-boot/imx-optee-os/out/export-ta_arm64/lib/libutils.a(trace.o)
 .group         0x0000000000000000        0xc /home/atmark/optee-build/imx-boot/imx-optee-os/out/export-ta_arm64/lib/libutils.a(trace.o)
 .group         0x0000000000000000        0xc /home/atmark/optee-build/imx-boot/imx-optee-os/out/export-ta_arm64/lib/libutils.a(trace.o)
 .group         0x0000000000000000        0xc /home/atmark/optee-build/imx-boot/imx-optee-os/out/export-ta_arm64/lib/libutils.a(trace.o)
 .group         0x0000000000000000        0xc /home/atmark/optee-build/imx-boot/imx-optee-os/out/export-ta_arm64/lib/libutils.a(trace.o)
 .group         0x0000000000000000        0xc /home/atmark/optee-build/imx-boot/imx-optee-os/out/export-ta_arm64/lib/libutils.a(trace.o)
 .group         0x0000000000000000        0xc /home/atmark/optee-build/imx-boot/imx-optee-os/out/export-ta_arm64/lib/libutils.a(trace.o)
 .debug_macro   0x0000000000000000      0x62f /home/atmark/optee-build/imx-boot/imx-optee-os/out/export-ta_arm64/lib/libutils.a(trace.o)
 .debug_macro   0x0000000000000000      0x16d /home/atmark/optee-build/imx-boot/imx-optee-os/out/export-ta_arm64/lib/libutils.a(trace.o)
 .debug_macro   0x0000000000000000       0x58 /home/atmark/optee-build/imx-boot/imx-optee-os/out/export-ta_arm64/lib/libutils.a(trace.o)
 .debug_macro   0x0000000000000000       0x22 /home/atmark/optee-build/imx-boot/imx-optee-os/out/export-ta_arm64/lib/libutils.a(trace.o)
 .debug_macro   0x0000000000000000       0x16 /home/atmark/optee-build/imx-boot/imx-optee-os/out/export-ta_arm64/lib/libutils.a(trace.o)
 .debug_macro   0x0000000000000000       0xed /home/atmark/optee-build/imx-boot/imx-optee-os/out/export-ta_arm64/lib/libutils.a(trace.o)
 .debug_macro   0x0000000000000000       0x34 /home/atmark/optee-build/imx-boot/imx-optee-os/out/export-ta_arm64/lib/libutils.a(trace.o)
 .debug_macro   0x0000000000000000       0x78 /home/atmark/optee-build/imx-boot/imx-optee-os/out/export-ta_arm64/lib/libutils.a(trace.o)
 .debug_macro   0x0000000000000000       0x7c /home/atmark/optee-build/imx-boot/imx-optee-os/out/export-ta_arm64/lib/libutils.a(trace.o)
 .debug_macro   0x0000000000000000      0x1a7 /home/atmark/optee-build/imx-boot/imx-optee-os/out/export-ta_arm64/lib/libutils.a(trace.o)
 .debug_macro   0x0000000000000000       0xc4 /home/atmark/optee-build/imx-boot/imx-optee-os/out/export-ta_arm64/lib/libutils.a(trace.o)
 .debug_macro   0x0000000000000000       0x2e /home/atmark/optee-build/imx-boot/imx-optee-os/out/export-ta_arm64/lib/libutils.a(trace.o)
 .group         0x0000000000000000        0xc /home/atmark/optee-build/imx-boot/imx-optee-os/out/export-ta_arm64/lib/libutils.a(snprintk.o)
 .group         0x0000000000000000        0xc /home/atmark/optee-build/imx-boot/imx-optee-os/out/export-ta_arm64/lib/libutils.a(snprintk.o)
 .group         0x0000000000000000        0xc /home/atmark/optee-build/imx-boot/imx-optee-os/out/export-ta_arm64/lib/libutils.a(snprintk.o)
 .group         0x0000000000000000        0xc /home/atmark/optee-build/imx-boot/imx-optee-os/out/export-ta_arm64/lib/libutils.a(snprintk.o)
 .group         0x0000000000000000        0xc /home/atmark/optee-build/imx-boot/imx-optee-os/out/export-ta_arm64/lib/libutils.a(snprintk.o)
 .group         0x0000000000000000        0xc /home/atmark/optee-build/imx-boot/imx-optee-os/out/export-ta_arm64/lib/libutils.a(snprintk.o)
 .group         0x0000000000000000        0xc /home/atmark/optee-build/imx-boot/imx-optee-os/out/export-ta_arm64/lib/libutils.a(snprintk.o)
 .group         0x0000000000000000        0xc /home/atmark/optee-build/imx-boot/imx-optee-os/out/export-ta_arm64/lib/libutils.a(snprintk.o)
 .group         0x0000000000000000        0xc /home/atmark/optee-build/imx-boot/imx-optee-os/out/export-ta_arm64/lib/libutils.a(snprintk.o)
 .debug_macro   0x0000000000000000      0x62f /home/atmark/optee-build/imx-boot/imx-optee-os/out/export-ta_arm64/lib/libutils.a(snprintk.o)
 .debug_macro   0x0000000000000000       0xed /home/atmark/optee-build/imx-boot/imx-optee-os/out/export-ta_arm64/lib/libutils.a(snprintk.o)
 .debug_macro   0x0000000000000000       0x7c /home/atmark/optee-build/imx-boot/imx-optee-os/out/export-ta_arm64/lib/libutils.a(snprintk.o)
 .debug_macro   0x0000000000000000      0x1a7 /home/atmark/optee-build/imx-boot/imx-optee-os/out/export-ta_arm64/lib/libutils.a(snprintk.o)
 .debug_macro   0x0000000000000000      0x16d /home/atmark/optee-build/imx-boot/imx-optee-os/out/export-ta_arm64/lib/libutils.a(snprintk.o)
 .debug_macro   0x0000000000000000       0x16 /home/atmark/optee-build/imx-boot/imx-optee-os/out/export-ta_arm64/lib/libutils.a(snprintk.o)
 .debug_macro   0x0000000000000000       0x58 /home/atmark/optee-build/imx-boot/imx-optee-os/out/export-ta_arm64/lib/libutils.a(snprintk.o)
 .debug_macro   0x0000000000000000       0x22 /home/atmark/optee-build/imx-boot/imx-optee-os/out/export-ta_arm64/lib/libutils.a(snprintk.o)
 .group         0x0000000000000000        0xc /home/atmark/optee-build/imx-boot/imx-optee-os/out/export-ta_arm64/lib/libutils.a(memchr.o)
 .group         0x0000000000000000        0xc /home/atmark/optee-build/imx-boot/imx-optee-os/out/export-ta_arm64/lib/libutils.a(memchr.o)
 .group         0x0000000000000000        0xc /home/atmark/optee-build/imx-boot/imx-optee-os/out/export-ta_arm64/lib/libutils.a(memchr.o)
 .group         0x0000000000000000        0xc /home/atmark/optee-build/imx-boot/imx-optee-os/out/export-ta_arm64/lib/libutils.a(memchr.o)
 .group         0x0000000000000000        0xc /home/atmark/optee-build/imx-boot/imx-optee-os/out/export-ta_arm64/lib/libutils.a(memchr.o)
 .group         0x0000000000000000        0xc /home/atmark/optee-build/imx-boot/imx-optee-os/out/export-ta_arm64/lib/libutils.a(memchr.o)
 .debug_macro   0x0000000000000000      0x62f /home/atmark/optee-build/imx-boot/imx-optee-os/out/export-ta_arm64/lib/libutils.a(memchr.o)
 .debug_macro   0x0000000000000000       0x7c /home/atmark/optee-build/imx-boot/imx-optee-os/out/export-ta_arm64/lib/libutils.a(memchr.o)
 .debug_macro   0x0000000000000000      0x16d /home/atmark/optee-build/imx-boot/imx-optee-os/out/export-ta_arm64/lib/libutils.a(memchr.o)
 .debug_macro   0x0000000000000000       0x16 /home/atmark/optee-build/imx-boot/imx-optee-os/out/export-ta_arm64/lib/libutils.a(memchr.o)
 .debug_macro   0x0000000000000000       0x7c /home/atmark/optee-build/imx-boot/imx-optee-os/out/export-ta_arm64/lib/libutils.a(memchr.o)
 .group         0x0000000000000000        0xc /home/atmark/optee-build/imx-boot/imx-optee-os/out/export-ta_arm64/lib/libutils.a(strlen.o)
 .group         0x0000000000000000        0xc /home/atmark/optee-build/imx-boot/imx-optee-os/out/export-ta_arm64/lib/libutils.a(strlen.o)
 .group         0x0000000000000000        0xc /home/atmark/optee-build/imx-boot/imx-optee-os/out/export-ta_arm64/lib/libutils.a(strlen.o)
 .group         0x0000000000000000        0xc /home/atmark/optee-build/imx-boot/imx-optee-os/out/export-ta_arm64/lib/libutils.a(strlen.o)
 .group         0x0000000000000000        0xc /home/atmark/optee-build/imx-boot/imx-optee-os/out/export-ta_arm64/lib/libutils.a(strlen.o)
 .group         0x0000000000000000        0xc /home/atmark/optee-build/imx-boot/imx-optee-os/out/export-ta_arm64/lib/libutils.a(strlen.o)
 .debug_macro   0x0000000000000000      0x62f /home/atmark/optee-build/imx-boot/imx-optee-os/out/export-ta_arm64/lib/libutils.a(strlen.o)
 .debug_macro   0x0000000000000000       0x7c /home/atmark/optee-build/imx-boot/imx-optee-os/out/export-ta_arm64/lib/libutils.a(strlen.o)
 .debug_macro   0x0000000000000000      0x16d /home/atmark/optee-build/imx-boot/imx-optee-os/out/export-ta_arm64/lib/libutils.a(strlen.o)
 .debug_macro   0x0000000000000000       0x16 /home/atmark/optee-build/imx-boot/imx-optee-os/out/export-ta_arm64/lib/libutils.a(strlen.o)
 .debug_macro   0x0000000000000000       0x7c /home/atmark/optee-build/imx-boot/imx-optee-os/out/export-ta_arm64/lib/libutils.a(strlen.o)
 .group         0x0000000000000000        0xc /home/atmark/optee-build/imx-boot/imx-optee-os/out/export-ta_arm64/lib/libutee.a(assert.o)
 .group         0x0000000000000000        0xc /home/atmark/optee-build/imx-boot/imx-optee-os/out/export-ta_arm64/lib/libutee.a(assert.o)
 .group         0x0000000000000000        0xc /home/atmark/optee-build/imx-boot/imx-optee-os/out/export-ta_arm64/lib/libutee.a(assert.o)
 .group         0x0000000000000000        0xc /home/atmark/optee-build/imx-boot/imx-optee-os/out/export-ta_arm64/lib/libutee.a(assert.o)
 .group         0x0000000000000000        0xc /home/atmark/optee-build/imx-boot/imx-optee-os/out/export-ta_arm64/lib/libutee.a(assert.o)
 .group         0x0000000000000000        0xc /home/atmark/optee-build/imx-boot/imx-optee-os/out/export-ta_arm64/lib/libutee.a(assert.o)
 .group         0x0000000000000000        0xc /home/atmark/optee-build/imx-boot/imx-optee-os/out/export-ta_arm64/lib/libutee.a(assert.o)
 .group         0x0000000000000000        0xc /home/atmark/optee-build/imx-boot/imx-optee-os/out/export-ta_arm64/lib/libutee.a(assert.o)
 .group         0x0000000000000000        0xc /home/atmark/optee-build/imx-boot/imx-optee-os/out/export-ta_arm64/lib/libutee.a(assert.o)
 .group         0x0000000000000000        0xc /home/atmark/optee-build/imx-boot/imx-optee-os/out/export-ta_arm64/lib/libutee.a(assert.o)
 .group         0x0000000000000000        0xc /home/atmark/optee-build/imx-boot/imx-optee-os/out/export-ta_arm64/lib/libutee.a(assert.o)
 .group         0x0000000000000000        0xc /home/atmark/optee-build/imx-boot/imx-optee-os/out/export-ta_arm64/lib/libutee.a(assert.o)
 .group         0x0000000000000000        0xc /home/atmark/optee-build/imx-boot/imx-optee-os/out/export-ta_arm64/lib/libutee.a(assert.o)
 .group         0x0000000000000000        0xc /home/atmark/optee-build/imx-boot/imx-optee-os/out/export-ta_arm64/lib/libutee.a(assert.o)
 .group         0x0000000000000000        0xc /home/atmark/optee-build/imx-boot/imx-optee-os/out/export-ta_arm64/lib/libutee.a(assert.o)
 .group         0x0000000000000000        0xc /home/atmark/optee-build/imx-boot/imx-optee-os/out/export-ta_arm64/lib/libutee.a(assert.o)
 .debug_macro   0x0000000000000000      0x62f /home/atmark/optee-build/imx-boot/imx-optee-os/out/export-ta_arm64/lib/libutee.a(assert.o)
 .debug_macro   0x0000000000000000       0xed /home/atmark/optee-build/imx-boot/imx-optee-os/out/export-ta_arm64/lib/libutee.a(assert.o)
 .debug_macro   0x0000000000000000       0x58 /home/atmark/optee-build/imx-boot/imx-optee-os/out/export-ta_arm64/lib/libutee.a(assert.o)
 .debug_macro   0x0000000000000000       0x22 /home/atmark/optee-build/imx-boot/imx-optee-os/out/export-ta_arm64/lib/libutee.a(assert.o)
 .debug_macro   0x0000000000000000      0x16d /home/atmark/optee-build/imx-boot/imx-optee-os/out/export-ta_arm64/lib/libutee.a(assert.o)
 .debug_macro   0x0000000000000000       0x34 /home/atmark/optee-build/imx-boot/imx-optee-os/out/export-ta_arm64/lib/libutee.a(assert.o)
 .debug_macro   0x0000000000000000       0x78 /home/atmark/optee-build/imx-boot/imx-optee-os/out/export-ta_arm64/lib/libutee.a(assert.o)
 .debug_macro   0x0000000000000000      0x9b3 /home/atmark/optee-build/imx-boot/imx-optee-os/out/export-ta_arm64/lib/libutee.a(assert.o)
 .debug_macro   0x0000000000000000       0x7c /home/atmark/optee-build/imx-boot/imx-optee-os/out/export-ta_arm64/lib/libutee.a(assert.o)
 .debug_macro   0x0000000000000000      0x1a7 /home/atmark/optee-build/imx-boot/imx-optee-os/out/export-ta_arm64/lib/libutee.a(assert.o)
 .debug_macro   0x0000000000000000       0xc4 /home/atmark/optee-build/imx-boot/imx-optee-os/out/export-ta_arm64/lib/libutee.a(assert.o)
 .debug_macro   0x0000000000000000       0x35 /home/atmark/optee-build/imx-boot/imx-optee-os/out/export-ta_arm64/lib/libutee.a(assert.o)
 .debug_macro   0x0000000000000000       0x10 /home/atmark/optee-build/imx-boot/imx-optee-os/out/export-ta_arm64/lib/libutee.a(assert.o)
 .debug_macro   0x0000000000000000       0xd6 /home/atmark/optee-build/imx-boot/imx-optee-os/out/export-ta_arm64/lib/libutee.a(assert.o)
 .group         0x0000000000000000        0xc /home/atmark/optee-build/imx-boot/imx-optee-os/out/export-ta_arm64/lib/libutee.a(trace_ext.o)
 .group         0x0000000000000000        0xc /home/atmark/optee-build/imx-boot/imx-optee-os/out/export-ta_arm64/lib/libutee.a(trace_ext.o)
 .group         0x0000000000000000        0xc /home/atmark/optee-build/imx-boot/imx-optee-os/out/export-ta_arm64/lib/libutee.a(trace_ext.o)
 .group         0x0000000000000000        0xc /home/atmark/optee-build/imx-boot/imx-optee-os/out/export-ta_arm64/lib/libutee.a(trace_ext.o)
 .group         0x0000000000000000        0xc /home/atmark/optee-build/imx-boot/imx-optee-os/out/export-ta_arm64/lib/libutee.a(trace_ext.o)
 .group         0x0000000000000000        0xc /home/atmark/optee-build/imx-boot/imx-optee-os/out/export-ta_arm64/lib/libutee.a(trace_ext.o)
 .group         0x0000000000000000        0xc /home/atmark/optee-build/imx-boot/imx-optee-os/out/export-ta_arm64/lib/libutee.a(trace_ext.o)
 .group         0x0000000000000000        0xc /home/atmark/optee-build/imx-boot/imx-optee-os/out/export-ta_arm64/lib/libutee.a(trace_ext.o)
 .group         0x0000000000000000        0xc /home/atmark/optee-build/imx-boot/imx-optee-os/out/export-ta_arm64/lib/libutee.a(trace_ext.o)
 .group         0x0000000000000000        0xc /home/atmark/optee-build/imx-boot/imx-optee-os/out/export-ta_arm64/lib/libutee.a(trace_ext.o)
 .group         0x0000000000000000        0xc /home/atmark/optee-build/imx-boot/imx-optee-os/out/export-ta_arm64/lib/libutee.a(trace_ext.o)
 .group         0x0000000000000000        0xc /home/atmark/optee-build/imx-boot/imx-optee-os/out/export-ta_arm64/lib/libutee.a(trace_ext.o)
 .group         0x0000000000000000        0xc /home/atmark/optee-build/imx-boot/imx-optee-os/out/export-ta_arm64/lib/libutee.a(trace_ext.o)
 .group         0x0000000000000000        0xc /home/atmark/optee-build/imx-boot/imx-optee-os/out/export-ta_arm64/lib/libutee.a(trace_ext.o)
 .group         0x0000000000000000        0xc /home/atmark/optee-build/imx-boot/imx-optee-os/out/export-ta_arm64/lib/libutee.a(trace_ext.o)
 .debug_macro   0x0000000000000000      0x62f /home/atmark/optee-build/imx-boot/imx-optee-os/out/export-ta_arm64/lib/libutee.a(trace_ext.o)
 .debug_macro   0x0000000000000000      0x16d /home/atmark/optee-build/imx-boot/imx-optee-os/out/export-ta_arm64/lib/libutee.a(trace_ext.o)
 .debug_macro   0x0000000000000000       0x58 /home/atmark/optee-build/imx-boot/imx-optee-os/out/export-ta_arm64/lib/libutee.a(trace_ext.o)
 .debug_macro   0x0000000000000000       0x16 /home/atmark/optee-build/imx-boot/imx-optee-os/out/export-ta_arm64/lib/libutee.a(trace_ext.o)
 .debug_macro   0x0000000000000000       0xed /home/atmark/optee-build/imx-boot/imx-optee-os/out/export-ta_arm64/lib/libutee.a(trace_ext.o)
 .debug_macro   0x0000000000000000       0x22 /home/atmark/optee-build/imx-boot/imx-optee-os/out/export-ta_arm64/lib/libutee.a(trace_ext.o)
 .debug_macro   0x0000000000000000       0x34 /home/atmark/optee-build/imx-boot/imx-optee-os/out/export-ta_arm64/lib/libutee.a(trace_ext.o)
 .debug_macro   0x0000000000000000       0x78 /home/atmark/optee-build/imx-boot/imx-optee-os/out/export-ta_arm64/lib/libutee.a(trace_ext.o)
 .debug_macro   0x0000000000000000       0x7c /home/atmark/optee-build/imx-boot/imx-optee-os/out/export-ta_arm64/lib/libutee.a(trace_ext.o)
 .debug_macro   0x0000000000000000      0x1a7 /home/atmark/optee-build/imx-boot/imx-optee-os/out/export-ta_arm64/lib/libutee.a(trace_ext.o)
 .debug_macro   0x0000000000000000       0xc4 /home/atmark/optee-build/imx-boot/imx-optee-os/out/export-ta_arm64/lib/libutee.a(trace_ext.o)
 .debug_macro   0x0000000000000000       0xdb /home/atmark/optee-build/imx-boot/imx-optee-os/out/export-ta_arm64/lib/libutee.a(trace_ext.o)
 .debug_macro   0x0000000000000000      0x9b3 /home/atmark/optee-build/imx-boot/imx-optee-os/out/export-ta_arm64/lib/libutee.a(trace_ext.o)
 .debug_macro   0x0000000000000000       0x35 /home/atmark/optee-build/imx-boot/imx-optee-os/out/export-ta_arm64/lib/libutee.a(trace_ext.o)
 .group         0x0000000000000000        0xc /home/atmark/optee-build/imx-boot/imx-optee-os/out/export-ta_arm64/lib/libutee.a(tee_api_operations.o)
 .group         0x0000000000000000        0xc /home/atmark/optee-build/imx-boot/imx-optee-os/out/export-ta_arm64/lib/libutee.a(tee_api_operations.o)
 .group         0x0000000000000000        0xc /home/atmark/optee-build/imx-boot/imx-optee-os/out/export-ta_arm64/lib/libutee.a(tee_api_operations.o)
 .group         0x0000000000000000        0xc /home/atmark/optee-build/imx-boot/imx-optee-os/out/export-ta_arm64/lib/libutee.a(tee_api_operations.o)
 .group         0x0000000000000000        0xc /home/atmark/optee-build/imx-boot/imx-optee-os/out/export-ta_arm64/lib/libutee.a(tee_api_operations.o)
 .group         0x0000000000000000        0xc /home/atmark/optee-build/imx-boot/imx-optee-os/out/export-ta_arm64/lib/libutee.a(tee_api_operations.o)
 .group         0x0000000000000000        0xc /home/atmark/optee-build/imx-boot/imx-optee-os/out/export-ta_arm64/lib/libutee.a(tee_api_operations.o)
 .group         0x0000000000000000        0xc /home/atmark/optee-build/imx-boot/imx-optee-os/out/export-ta_arm64/lib/libutee.a(tee_api_operations.o)
 .group         0x0000000000000000        0xc /home/atmark/optee-build/imx-boot/imx-optee-os/out/export-ta_arm64/lib/libutee.a(tee_api_operations.o)
 .group         0x0000000000000000        0xc /home/atmark/optee-build/imx-boot/imx-optee-os/out/export-ta_arm64/lib/libutee.a(tee_api_operations.o)
 .group         0x0000000000000000        0xc /home/atmark/optee-build/imx-boot/imx-optee-os/out/export-ta_arm64/lib/libutee.a(tee_api_operations.o)
 .group         0x0000000000000000        0xc /home/atmark/optee-build/imx-boot/imx-optee-os/out/export-ta_arm64/lib/libutee.a(tee_api_operations.o)
 .group         0x0000000000000000        0xc /home/atmark/optee-build/imx-boot/imx-optee-os/out/export-ta_arm64/lib/libutee.a(tee_api_operations.o)
 .group         0x0000000000000000        0xc /home/atmark/optee-build/imx-boot/imx-optee-os/out/export-ta_arm64/lib/libutee.a(tee_api_operations.o)
 .group         0x0000000000000000        0xc /home/atmark/optee-build/imx-boot/imx-optee-os/out/export-ta_arm64/lib/libutee.a(tee_api_operations.o)
 .group         0x0000000000000000        0xc /home/atmark/optee-build/imx-boot/imx-optee-os/out/export-ta_arm64/lib/libutee.a(tee_api_operations.o)
 .group         0x0000000000000000        0xc /home/atmark/optee-build/imx-boot/imx-optee-os/out/export-ta_arm64/lib/libutee.a(tee_api_operations.o)
 .group         0x0000000000000000        0xc /home/atmark/optee-build/imx-boot/imx-optee-os/out/export-ta_arm64/lib/libutee.a(tee_api_operations.o)
 .group         0x0000000000000000        0xc /home/atmark/optee-build/imx-boot/imx-optee-os/out/export-ta_arm64/lib/libutee.a(tee_api_operations.o)
 .group         0x0000000000000000        0xc /home/atmark/optee-build/imx-boot/imx-optee-os/out/export-ta_arm64/lib/libutee.a(tee_api_operations.o)
 .debug_macro   0x0000000000000000      0x62f /home/atmark/optee-build/imx-boot/imx-optee-os/out/export-ta_arm64/lib/libutee.a(tee_api_operations.o)
 .debug_macro   0x0000000000000000       0xed /home/atmark/optee-build/imx-boot/imx-optee-os/out/export-ta_arm64/lib/libutee.a(tee_api_operations.o)
 .debug_macro   0x0000000000000000      0x16d /home/atmark/optee-build/imx-boot/imx-optee-os/out/export-ta_arm64/lib/libutee.a(tee_api_operations.o)
 .debug_macro   0x0000000000000000       0x7c /home/atmark/optee-build/imx-boot/imx-optee-os/out/export-ta_arm64/lib/libutee.a(tee_api_operations.o)
 .debug_macro   0x0000000000000000      0x1a7 /home/atmark/optee-build/imx-boot/imx-optee-os/out/export-ta_arm64/lib/libutee.a(tee_api_operations.o)
 .debug_macro   0x0000000000000000       0xc4 /home/atmark/optee-build/imx-boot/imx-optee-os/out/export-ta_arm64/lib/libutee.a(tee_api_operations.o)
 .debug_macro   0x0000000000000000       0x22 /home/atmark/optee-build/imx-boot/imx-optee-os/out/export-ta_arm64/lib/libutee.a(tee_api_operations.o)
 .debug_macro   0x0000000000000000       0x2e /home/atmark/optee-build/imx-boot/imx-optee-os/out/export-ta_arm64/lib/libutee.a(tee_api_operations.o)
 .debug_macro   0x0000000000000000       0x2d /home/atmark/optee-build/imx-boot/imx-optee-os/out/export-ta_arm64/lib/libutee.a(tee_api_operations.o)
 .debug_macro   0x0000000000000000       0x16 /home/atmark/optee-build/imx-boot/imx-optee-os/out/export-ta_arm64/lib/libutee.a(tee_api_operations.o)
 .debug_macro   0x0000000000000000      0x9b3 /home/atmark/optee-build/imx-boot/imx-optee-os/out/export-ta_arm64/lib/libutee.a(tee_api_operations.o)
 .debug_macro   0x0000000000000000       0x35 /home/atmark/optee-build/imx-boot/imx-optee-os/out/export-ta_arm64/lib/libutee.a(tee_api_operations.o)
 .debug_macro   0x0000000000000000       0x58 /home/atmark/optee-build/imx-boot/imx-optee-os/out/export-ta_arm64/lib/libutee.a(tee_api_operations.o)
 .debug_macro   0x0000000000000000       0x34 /home/atmark/optee-build/imx-boot/imx-optee-os/out/export-ta_arm64/lib/libutee.a(tee_api_operations.o)
 .debug_macro   0x0000000000000000       0x78 /home/atmark/optee-build/imx-boot/imx-optee-os/out/export-ta_arm64/lib/libutee.a(tee_api_operations.o)
 .debug_macro   0x0000000000000000       0xd6 /home/atmark/optee-build/imx-boot/imx-optee-os/out/export-ta_arm64/lib/libutee.a(tee_api_operations.o)
 .debug_macro   0x0000000000000000       0xe1 /home/atmark/optee-build/imx-boot/imx-optee-os/out/export-ta_arm64/lib/libutee.a(tee_api_operations.o)
 .group         0x0000000000000000        0xc /home/atmark/optee-build/imx-boot/imx-optee-os/out/export-ta_arm64/lib/libutee.a(tee_api_panic.o)
 .group         0x0000000000000000        0xc /home/atmark/optee-build/imx-boot/imx-optee-os/out/export-ta_arm64/lib/libutee.a(tee_api_panic.o)
 .group         0x0000000000000000        0xc /home/atmark/optee-build/imx-boot/imx-optee-os/out/export-ta_arm64/lib/libutee.a(tee_api_panic.o)
 .group         0x0000000000000000        0xc /home/atmark/optee-build/imx-boot/imx-optee-os/out/export-ta_arm64/lib/libutee.a(tee_api_panic.o)
 .group         0x0000000000000000        0xc /home/atmark/optee-build/imx-boot/imx-optee-os/out/export-ta_arm64/lib/libutee.a(tee_api_panic.o)
 .group         0x0000000000000000        0xc /home/atmark/optee-build/imx-boot/imx-optee-os/out/export-ta_arm64/lib/libutee.a(tee_api_panic.o)
 .group         0x0000000000000000        0xc /home/atmark/optee-build/imx-boot/imx-optee-os/out/export-ta_arm64/lib/libutee.a(tee_api_panic.o)
 .group         0x0000000000000000        0xc /home/atmark/optee-build/imx-boot/imx-optee-os/out/export-ta_arm64/lib/libutee.a(tee_api_panic.o)
 .group         0x0000000000000000        0xc /home/atmark/optee-build/imx-boot/imx-optee-os/out/export-ta_arm64/lib/libutee.a(tee_api_panic.o)
 .group         0x0000000000000000        0xc /home/atmark/optee-build/imx-boot/imx-optee-os/out/export-ta_arm64/lib/libutee.a(tee_api_panic.o)
 .group         0x0000000000000000        0xc /home/atmark/optee-build/imx-boot/imx-optee-os/out/export-ta_arm64/lib/libutee.a(tee_api_panic.o)
 .group         0x0000000000000000        0xc /home/atmark/optee-build/imx-boot/imx-optee-os/out/export-ta_arm64/lib/libutee.a(tee_api_panic.o)
 .group         0x0000000000000000        0xc /home/atmark/optee-build/imx-boot/imx-optee-os/out/export-ta_arm64/lib/libutee.a(tee_api_panic.o)
 .group         0x0000000000000000        0xc /home/atmark/optee-build/imx-boot/imx-optee-os/out/export-ta_arm64/lib/libutee.a(tee_api_panic.o)
 .group         0x0000000000000000        0xc /home/atmark/optee-build/imx-boot/imx-optee-os/out/export-ta_arm64/lib/libutee.a(tee_api_panic.o)
 .group         0x0000000000000000        0xc /home/atmark/optee-build/imx-boot/imx-optee-os/out/export-ta_arm64/lib/libutee.a(tee_api_panic.o)
 .debug_macro   0x0000000000000000      0x62f /home/atmark/optee-build/imx-boot/imx-optee-os/out/export-ta_arm64/lib/libutee.a(tee_api_panic.o)
 .debug_macro   0x0000000000000000       0x28 /home/atmark/optee-build/imx-boot/imx-optee-os/out/export-ta_arm64/lib/libutee.a(tee_api_panic.o)
 .debug_macro   0x0000000000000000      0x16d /home/atmark/optee-build/imx-boot/imx-optee-os/out/export-ta_arm64/lib/libutee.a(tee_api_panic.o)
 .debug_macro   0x0000000000000000       0x16 /home/atmark/optee-build/imx-boot/imx-optee-os/out/export-ta_arm64/lib/libutee.a(tee_api_panic.o)
 .debug_macro   0x0000000000000000       0xed /home/atmark/optee-build/imx-boot/imx-optee-os/out/export-ta_arm64/lib/libutee.a(tee_api_panic.o)
 .debug_macro   0x0000000000000000      0x9b3 /home/atmark/optee-build/imx-boot/imx-optee-os/out/export-ta_arm64/lib/libutee.a(tee_api_panic.o)
 .debug_macro   0x0000000000000000       0x7c /home/atmark/optee-build/imx-boot/imx-optee-os/out/export-ta_arm64/lib/libutee.a(tee_api_panic.o)
 .debug_macro   0x0000000000000000      0x1a7 /home/atmark/optee-build/imx-boot/imx-optee-os/out/export-ta_arm64/lib/libutee.a(tee_api_panic.o)
 .debug_macro   0x0000000000000000       0xc4 /home/atmark/optee-build/imx-boot/imx-optee-os/out/export-ta_arm64/lib/libutee.a(tee_api_panic.o)
 .debug_macro   0x0000000000000000       0x22 /home/atmark/optee-build/imx-boot/imx-optee-os/out/export-ta_arm64/lib/libutee.a(tee_api_panic.o)
 .debug_macro   0x0000000000000000       0x35 /home/atmark/optee-build/imx-boot/imx-optee-os/out/export-ta_arm64/lib/libutee.a(tee_api_panic.o)
 .debug_macro   0x0000000000000000       0x58 /home/atmark/optee-build/imx-boot/imx-optee-os/out/export-ta_arm64/lib/libutee.a(tee_api_panic.o)
 .debug_macro   0x0000000000000000       0x34 /home/atmark/optee-build/imx-boot/imx-optee-os/out/export-ta_arm64/lib/libutee.a(tee_api_panic.o)
 .debug_macro   0x0000000000000000       0x78 /home/atmark/optee-build/imx-boot/imx-optee-os/out/export-ta_arm64/lib/libutee.a(tee_api_panic.o)
 .debug_macro   0x0000000000000000       0xe1 /home/atmark/optee-build/imx-boot/imx-optee-os/out/export-ta_arm64/lib/libutee.a(tee_api_panic.o)
 .group         0x0000000000000000        0xc /home/atmark/optee-build/imx-boot/imx-optee-os/out/export-ta_arm64/lib/libutee.a(tee_tcpudp_socket.o)
 .group         0x0000000000000000        0xc /home/atmark/optee-build/imx-boot/imx-optee-os/out/export-ta_arm64/lib/libutee.a(tee_tcpudp_socket.o)
 .group         0x0000000000000000        0xc /home/atmark/optee-build/imx-boot/imx-optee-os/out/export-ta_arm64/lib/libutee.a(tee_tcpudp_socket.o)
 .group         0x0000000000000000        0xc /home/atmark/optee-build/imx-boot/imx-optee-os/out/export-ta_arm64/lib/libutee.a(tee_tcpudp_socket.o)
 .group         0x0000000000000000        0xc /home/atmark/optee-build/imx-boot/imx-optee-os/out/export-ta_arm64/lib/libutee.a(tee_tcpudp_socket.o)
 .group         0x0000000000000000        0xc /home/atmark/optee-build/imx-boot/imx-optee-os/out/export-ta_arm64/lib/libutee.a(tee_tcpudp_socket.o)
 .group         0x0000000000000000        0xc /home/atmark/optee-build/imx-boot/imx-optee-os/out/export-ta_arm64/lib/libutee.a(tee_tcpudp_socket.o)
 .group         0x0000000000000000        0xc /home/atmark/optee-build/imx-boot/imx-optee-os/out/export-ta_arm64/lib/libutee.a(tee_tcpudp_socket.o)
 .group         0x0000000000000000        0xc /home/atmark/optee-build/imx-boot/imx-optee-os/out/export-ta_arm64/lib/libutee.a(tee_tcpudp_socket.o)
 .group         0x0000000000000000        0xc /home/atmark/optee-build/imx-boot/imx-optee-os/out/export-ta_arm64/lib/libutee.a(tee_tcpudp_socket.o)
 .group         0x0000000000000000        0xc /home/atmark/optee-build/imx-boot/imx-optee-os/out/export-ta_arm64/lib/libutee.a(tee_tcpudp_socket.o)
 .group         0x0000000000000000        0xc /home/atmark/optee-build/imx-boot/imx-optee-os/out/export-ta_arm64/lib/libutee.a(tee_tcpudp_socket.o)
 .group         0x0000000000000000        0xc /home/atmark/optee-build/imx-boot/imx-optee-os/out/export-ta_arm64/lib/libutee.a(tee_tcpudp_socket.o)
 .group         0x0000000000000000        0xc /home/atmark/optee-build/imx-boot/imx-optee-os/out/export-ta_arm64/lib/libutee.a(tee_tcpudp_socket.o)
 .group         0x0000000000000000        0xc /home/atmark/optee-build/imx-boot/imx-optee-os/out/export-ta_arm64/lib/libutee.a(tee_tcpudp_socket.o)
 .group         0x0000000000000000        0xc /home/atmark/optee-build/imx-boot/imx-optee-os/out/export-ta_arm64/lib/libutee.a(tee_tcpudp_socket.o)
 .group         0x0000000000000000        0xc /home/atmark/optee-build/imx-boot/imx-optee-os/out/export-ta_arm64/lib/libutee.a(tee_tcpudp_socket.o)
 .group         0x0000000000000000        0xc /home/atmark/optee-build/imx-boot/imx-optee-os/out/export-ta_arm64/lib/libutee.a(tee_tcpudp_socket.o)
 .group         0x0000000000000000        0xc /home/atmark/optee-build/imx-boot/imx-optee-os/out/export-ta_arm64/lib/libutee.a(tee_tcpudp_socket.o)
 .debug_macro   0x0000000000000000      0x62f /home/atmark/optee-build/imx-boot/imx-optee-os/out/export-ta_arm64/lib/libutee.a(tee_tcpudp_socket.o)
 .debug_macro   0x0000000000000000      0x16d /home/atmark/optee-build/imx-boot/imx-optee-os/out/export-ta_arm64/lib/libutee.a(tee_tcpudp_socket.o)
 .debug_macro   0x0000000000000000       0xed /home/atmark/optee-build/imx-boot/imx-optee-os/out/export-ta_arm64/lib/libutee.a(tee_tcpudp_socket.o)
 .debug_macro   0x0000000000000000      0x9b3 /home/atmark/optee-build/imx-boot/imx-optee-os/out/export-ta_arm64/lib/libutee.a(tee_tcpudp_socket.o)
 .debug_macro   0x0000000000000000       0x7c /home/atmark/optee-build/imx-boot/imx-optee-os/out/export-ta_arm64/lib/libutee.a(tee_tcpudp_socket.o)
 .debug_macro   0x0000000000000000      0x1a7 /home/atmark/optee-build/imx-boot/imx-optee-os/out/export-ta_arm64/lib/libutee.a(tee_tcpudp_socket.o)
 .debug_macro   0x0000000000000000       0xc4 /home/atmark/optee-build/imx-boot/imx-optee-os/out/export-ta_arm64/lib/libutee.a(tee_tcpudp_socket.o)
 .debug_macro   0x0000000000000000       0x22 /home/atmark/optee-build/imx-boot/imx-optee-os/out/export-ta_arm64/lib/libutee.a(tee_tcpudp_socket.o)
 .debug_macro   0x0000000000000000       0x35 /home/atmark/optee-build/imx-boot/imx-optee-os/out/export-ta_arm64/lib/libutee.a(tee_tcpudp_socket.o)
 .debug_macro   0x0000000000000000       0x58 /home/atmark/optee-build/imx-boot/imx-optee-os/out/export-ta_arm64/lib/libutee.a(tee_tcpudp_socket.o)
 .debug_macro   0x0000000000000000       0x34 /home/atmark/optee-build/imx-boot/imx-optee-os/out/export-ta_arm64/lib/libutee.a(tee_tcpudp_socket.o)
 .debug_macro   0x0000000000000000       0x78 /home/atmark/optee-build/imx-boot/imx-optee-os/out/export-ta_arm64/lib/libutee.a(tee_tcpudp_socket.o)
 .debug_macro   0x0000000000000000       0x10 /home/atmark/optee-build/imx-boot/imx-optee-os/out/export-ta_arm64/lib/libutee.a(tee_tcpudp_socket.o)
 .debug_macro   0x0000000000000000       0x3a /home/atmark/optee-build/imx-boot/imx-optee-os/out/export-ta_arm64/lib/libutee.a(tee_tcpudp_socket.o)
 .debug_macro   0x0000000000000000       0x16 /home/atmark/optee-build/imx-boot/imx-optee-os/out/export-ta_arm64/lib/libutee.a(tee_tcpudp_socket.o)
 .debug_macro   0x0000000000000000       0x22 /home/atmark/optee-build/imx-boot/imx-optee-os/out/export-ta_arm64/lib/libutee.a(tee_tcpudp_socket.o)
 .group         0x0000000000000000        0xc /home/atmark/optee-build/imx-boot/imx-optee-os/out/export-ta_arm64/lib/libutee.a(user_ta_entry.o)
 .group         0x0000000000000000        0xc /home/atmark/optee-build/imx-boot/imx-optee-os/out/export-ta_arm64/lib/libutee.a(user_ta_entry.o)
 .group         0x0000000000000000        0xc /home/atmark/optee-build/imx-boot/imx-optee-os/out/export-ta_arm64/lib/libutee.a(user_ta_entry.o)
 .group         0x0000000000000000        0xc /home/atmark/optee-build/imx-boot/imx-optee-os/out/export-ta_arm64/lib/libutee.a(user_ta_entry.o)
 .group         0x0000000000000000        0xc /home/atmark/optee-build/imx-boot/imx-optee-os/out/export-ta_arm64/lib/libutee.a(user_ta_entry.o)
 .group         0x0000000000000000        0xc /home/atmark/optee-build/imx-boot/imx-optee-os/out/export-ta_arm64/lib/libutee.a(user_ta_entry.o)
 .group         0x0000000000000000        0xc /home/atmark/optee-build/imx-boot/imx-optee-os/out/export-ta_arm64/lib/libutee.a(user_ta_entry.o)
 .group         0x0000000000000000        0xc /home/atmark/optee-build/imx-boot/imx-optee-os/out/export-ta_arm64/lib/libutee.a(user_ta_entry.o)
 .group         0x0000000000000000        0xc /home/atmark/optee-build/imx-boot/imx-optee-os/out/export-ta_arm64/lib/libutee.a(user_ta_entry.o)
 .group         0x0000000000000000        0xc /home/atmark/optee-build/imx-boot/imx-optee-os/out/export-ta_arm64/lib/libutee.a(user_ta_entry.o)
 .group         0x0000000000000000        0xc /home/atmark/optee-build/imx-boot/imx-optee-os/out/export-ta_arm64/lib/libutee.a(user_ta_entry.o)
 .group         0x0000000000000000        0xc /home/atmark/optee-build/imx-boot/imx-optee-os/out/export-ta_arm64/lib/libutee.a(user_ta_entry.o)
 .group         0x0000000000000000        0xc /home/atmark/optee-build/imx-boot/imx-optee-os/out/export-ta_arm64/lib/libutee.a(user_ta_entry.o)
 .group         0x0000000000000000        0xc /home/atmark/optee-build/imx-boot/imx-optee-os/out/export-ta_arm64/lib/libutee.a(user_ta_entry.o)
 .group         0x0000000000000000        0xc /home/atmark/optee-build/imx-boot/imx-optee-os/out/export-ta_arm64/lib/libutee.a(user_ta_entry.o)
 .group         0x0000000000000000        0xc /home/atmark/optee-build/imx-boot/imx-optee-os/out/export-ta_arm64/lib/libutee.a(user_ta_entry.o)
 .group         0x0000000000000000        0xc /home/atmark/optee-build/imx-boot/imx-optee-os/out/export-ta_arm64/lib/libutee.a(user_ta_entry.o)
 .group         0x0000000000000000        0xc /home/atmark/optee-build/imx-boot/imx-optee-os/out/export-ta_arm64/lib/libutee.a(user_ta_entry.o)
 .group         0x0000000000000000        0xc /home/atmark/optee-build/imx-boot/imx-optee-os/out/export-ta_arm64/lib/libutee.a(user_ta_entry.o)
 .group         0x0000000000000000        0xc /home/atmark/optee-build/imx-boot/imx-optee-os/out/export-ta_arm64/lib/libutee.a(user_ta_entry.o)
 .group         0x0000000000000000        0xc /home/atmark/optee-build/imx-boot/imx-optee-os/out/export-ta_arm64/lib/libutee.a(user_ta_entry.o)
 .group         0x0000000000000000        0xc /home/atmark/optee-build/imx-boot/imx-optee-os/out/export-ta_arm64/lib/libutee.a(user_ta_entry.o)
 .group         0x0000000000000000        0xc /home/atmark/optee-build/imx-boot/imx-optee-os/out/export-ta_arm64/lib/libutee.a(user_ta_entry.o)
 .group         0x0000000000000000        0xc /home/atmark/optee-build/imx-boot/imx-optee-os/out/export-ta_arm64/lib/libutee.a(user_ta_entry.o)
 .debug_macro   0x0000000000000000      0x62f /home/atmark/optee-build/imx-boot/imx-optee-os/out/export-ta_arm64/lib/libutee.a(user_ta_entry.o)
 .debug_macro   0x0000000000000000       0xed /home/atmark/optee-build/imx-boot/imx-optee-os/out/export-ta_arm64/lib/libutee.a(user_ta_entry.o)
 .debug_macro   0x0000000000000000       0x7c /home/atmark/optee-build/imx-boot/imx-optee-os/out/export-ta_arm64/lib/libutee.a(user_ta_entry.o)
 .debug_macro   0x0000000000000000      0x1a7 /home/atmark/optee-build/imx-boot/imx-optee-os/out/export-ta_arm64/lib/libutee.a(user_ta_entry.o)
 .debug_macro   0x0000000000000000      0x16d /home/atmark/optee-build/imx-boot/imx-optee-os/out/export-ta_arm64/lib/libutee.a(user_ta_entry.o)
 .debug_macro   0x0000000000000000       0x22 /home/atmark/optee-build/imx-boot/imx-optee-os/out/export-ta_arm64/lib/libutee.a(user_ta_entry.o)
 .debug_macro   0x0000000000000000       0xc4 /home/atmark/optee-build/imx-boot/imx-optee-os/out/export-ta_arm64/lib/libutee.a(user_ta_entry.o)
 .debug_macro   0x0000000000000000       0x2e /home/atmark/optee-build/imx-boot/imx-optee-os/out/export-ta_arm64/lib/libutee.a(user_ta_entry.o)
 .debug_macro   0x0000000000000000       0x2d /home/atmark/optee-build/imx-boot/imx-optee-os/out/export-ta_arm64/lib/libutee.a(user_ta_entry.o)
 .debug_macro   0x0000000000000000       0x16 /home/atmark/optee-build/imx-boot/imx-optee-os/out/export-ta_arm64/lib/libutee.a(user_ta_entry.o)
 .debug_macro   0x0000000000000000      0x9b3 /home/atmark/optee-build/imx-boot/imx-optee-os/out/export-ta_arm64/lib/libutee.a(user_ta_entry.o)
 .debug_macro   0x0000000000000000       0x35 /home/atmark/optee-build/imx-boot/imx-optee-os/out/export-ta_arm64/lib/libutee.a(user_ta_entry.o)
 .debug_macro   0x0000000000000000       0x58 /home/atmark/optee-build/imx-boot/imx-optee-os/out/export-ta_arm64/lib/libutee.a(user_ta_entry.o)
 .debug_macro   0x0000000000000000       0x34 /home/atmark/optee-build/imx-boot/imx-optee-os/out/export-ta_arm64/lib/libutee.a(user_ta_entry.o)
 .debug_macro   0x0000000000000000       0x78 /home/atmark/optee-build/imx-boot/imx-optee-os/out/export-ta_arm64/lib/libutee.a(user_ta_entry.o)
 .debug_macro   0x0000000000000000       0x10 /home/atmark/optee-build/imx-boot/imx-optee-os/out/export-ta_arm64/lib/libutee.a(user_ta_entry.o)
 .debug_macro   0x0000000000000000       0xd6 /home/atmark/optee-build/imx-boot/imx-optee-os/out/export-ta_arm64/lib/libutee.a(user_ta_entry.o)
 .debug_macro   0x0000000000000000       0xe1 /home/atmark/optee-build/imx-boot/imx-optee-os/out/export-ta_arm64/lib/libutee.a(user_ta_entry.o)
 .debug_macro   0x0000000000000000       0x76 /home/atmark/optee-build/imx-boot/imx-optee-os/out/export-ta_arm64/lib/libutee.a(user_ta_entry.o)
 .group         0x0000000000000000        0xc /home/atmark/optee-build/imx-boot/imx-optee-os/out/export-ta_arm64/lib/libutee.a(abort.o)
 .group         0x0000000000000000        0xc /home/atmark/optee-build/imx-boot/imx-optee-os/out/export-ta_arm64/lib/libutee.a(abort.o)
 .group         0x0000000000000000        0xc /home/atmark/optee-build/imx-boot/imx-optee-os/out/export-ta_arm64/lib/libutee.a(abort.o)
 .group         0x0000000000000000        0xc /home/atmark/optee-build/imx-boot/imx-optee-os/out/export-ta_arm64/lib/libutee.a(abort.o)
 .group         0x0000000000000000        0xc /home/atmark/optee-build/imx-boot/imx-optee-os/out/export-ta_arm64/lib/libutee.a(abort.o)
 .group         0x0000000000000000        0xc /home/atmark/optee-build/imx-boot/imx-optee-os/out/export-ta_arm64/lib/libutee.a(abort.o)
 .group         0x0000000000000000        0xc /home/atmark/optee-build/imx-boot/imx-optee-os/out/export-ta_arm64/lib/libutee.a(abort.o)
 .group         0x0000000000000000        0xc /home/atmark/optee-build/imx-boot/imx-optee-os/out/export-ta_arm64/lib/libutee.a(abort.o)
 .group         0x0000000000000000        0xc /home/atmark/optee-build/imx-boot/imx-optee-os/out/export-ta_arm64/lib/libutee.a(abort.o)
 .group         0x0000000000000000        0xc /home/atmark/optee-build/imx-boot/imx-optee-os/out/export-ta_arm64/lib/libutee.a(abort.o)
 .group         0x0000000000000000        0xc /home/atmark/optee-build/imx-boot/imx-optee-os/out/export-ta_arm64/lib/libutee.a(abort.o)
 .group         0x0000000000000000        0xc /home/atmark/optee-build/imx-boot/imx-optee-os/out/export-ta_arm64/lib/libutee.a(abort.o)
 .group         0x0000000000000000        0xc /home/atmark/optee-build/imx-boot/imx-optee-os/out/export-ta_arm64/lib/libutee.a(abort.o)
 .group         0x0000000000000000        0xc /home/atmark/optee-build/imx-boot/imx-optee-os/out/export-ta_arm64/lib/libutee.a(abort.o)
 .group         0x0000000000000000        0xc /home/atmark/optee-build/imx-boot/imx-optee-os/out/export-ta_arm64/lib/libutee.a(abort.o)
 .debug_macro   0x0000000000000000      0x62f /home/atmark/optee-build/imx-boot/imx-optee-os/out/export-ta_arm64/lib/libutee.a(abort.o)
 .debug_macro   0x0000000000000000       0xed /home/atmark/optee-build/imx-boot/imx-optee-os/out/export-ta_arm64/lib/libutee.a(abort.o)
 .debug_macro   0x0000000000000000      0x16d /home/atmark/optee-build/imx-boot/imx-optee-os/out/export-ta_arm64/lib/libutee.a(abort.o)
 .debug_macro   0x0000000000000000       0x7c /home/atmark/optee-build/imx-boot/imx-optee-os/out/export-ta_arm64/lib/libutee.a(abort.o)
 .debug_macro   0x0000000000000000      0x1a7 /home/atmark/optee-build/imx-boot/imx-optee-os/out/export-ta_arm64/lib/libutee.a(abort.o)
 .debug_macro   0x0000000000000000       0xc4 /home/atmark/optee-build/imx-boot/imx-optee-os/out/export-ta_arm64/lib/libutee.a(abort.o)
 .debug_macro   0x0000000000000000       0x22 /home/atmark/optee-build/imx-boot/imx-optee-os/out/export-ta_arm64/lib/libutee.a(abort.o)
 .debug_macro   0x0000000000000000       0x2e /home/atmark/optee-build/imx-boot/imx-optee-os/out/export-ta_arm64/lib/libutee.a(abort.o)
 .debug_macro   0x0000000000000000       0x2d /home/atmark/optee-build/imx-boot/imx-optee-os/out/export-ta_arm64/lib/libutee.a(abort.o)
 .debug_macro   0x0000000000000000       0x58 /home/atmark/optee-build/imx-boot/imx-optee-os/out/export-ta_arm64/lib/libutee.a(abort.o)
 .debug_macro   0x0000000000000000      0x9b3 /home/atmark/optee-build/imx-boot/imx-optee-os/out/export-ta_arm64/lib/libutee.a(abort.o)
 .debug_macro   0x0000000000000000       0x35 /home/atmark/optee-build/imx-boot/imx-optee-os/out/export-ta_arm64/lib/libutee.a(abort.o)
 .debug_macro   0x0000000000000000       0x34 /home/atmark/optee-build/imx-boot/imx-optee-os/out/export-ta_arm64/lib/libutee.a(abort.o)
 .debug_macro   0x0000000000000000       0x78 /home/atmark/optee-build/imx-boot/imx-optee-os/out/export-ta_arm64/lib/libutee.a(abort.o)
 .group         0x0000000000000000        0xc /home/atmark/optee-build/imx-boot/imx-optee-os/out/export-ta_arm64/lib/libutee.a(tee_api.o)
 .group         0x0000000000000000        0xc /home/atmark/optee-build/imx-boot/imx-optee-os/out/export-ta_arm64/lib/libutee.a(tee_api.o)
 .group         0x0000000000000000        0xc /home/atmark/optee-build/imx-boot/imx-optee-os/out/export-ta_arm64/lib/libutee.a(tee_api.o)
 .group         0x0000000000000000        0xc /home/atmark/optee-build/imx-boot/imx-optee-os/out/export-ta_arm64/lib/libutee.a(tee_api.o)
 .group         0x0000000000000000        0xc /home/atmark/optee-build/imx-boot/imx-optee-os/out/export-ta_arm64/lib/libutee.a(tee_api.o)
 .group         0x0000000000000000        0xc /home/atmark/optee-build/imx-boot/imx-optee-os/out/export-ta_arm64/lib/libutee.a(tee_api.o)
 .group         0x0000000000000000        0xc /home/atmark/optee-build/imx-boot/imx-optee-os/out/export-ta_arm64/lib/libutee.a(tee_api.o)
 .group         0x0000000000000000        0xc /home/atmark/optee-build/imx-boot/imx-optee-os/out/export-ta_arm64/lib/libutee.a(tee_api.o)
 .group         0x0000000000000000        0xc /home/atmark/optee-build/imx-boot/imx-optee-os/out/export-ta_arm64/lib/libutee.a(tee_api.o)
 .group         0x0000000000000000        0xc /home/atmark/optee-build/imx-boot/imx-optee-os/out/export-ta_arm64/lib/libutee.a(tee_api.o)
 .group         0x0000000000000000        0xc /home/atmark/optee-build/imx-boot/imx-optee-os/out/export-ta_arm64/lib/libutee.a(tee_api.o)
 .group         0x0000000000000000        0xc /home/atmark/optee-build/imx-boot/imx-optee-os/out/export-ta_arm64/lib/libutee.a(tee_api.o)
 .group         0x0000000000000000        0xc /home/atmark/optee-build/imx-boot/imx-optee-os/out/export-ta_arm64/lib/libutee.a(tee_api.o)
 .group         0x0000000000000000        0xc /home/atmark/optee-build/imx-boot/imx-optee-os/out/export-ta_arm64/lib/libutee.a(tee_api.o)
 .group         0x0000000000000000        0xc /home/atmark/optee-build/imx-boot/imx-optee-os/out/export-ta_arm64/lib/libutee.a(tee_api.o)
 .group         0x0000000000000000        0xc /home/atmark/optee-build/imx-boot/imx-optee-os/out/export-ta_arm64/lib/libutee.a(tee_api.o)
 .group         0x0000000000000000        0xc /home/atmark/optee-build/imx-boot/imx-optee-os/out/export-ta_arm64/lib/libutee.a(tee_api.o)
 .group         0x0000000000000000        0xc /home/atmark/optee-build/imx-boot/imx-optee-os/out/export-ta_arm64/lib/libutee.a(tee_api.o)
 .group         0x0000000000000000        0xc /home/atmark/optee-build/imx-boot/imx-optee-os/out/export-ta_arm64/lib/libutee.a(tee_api.o)
 .debug_macro   0x0000000000000000      0x62f /home/atmark/optee-build/imx-boot/imx-optee-os/out/export-ta_arm64/lib/libutee.a(tee_api.o)
 .debug_macro   0x0000000000000000       0xed /home/atmark/optee-build/imx-boot/imx-optee-os/out/export-ta_arm64/lib/libutee.a(tee_api.o)
 .debug_macro   0x0000000000000000      0x16d /home/atmark/optee-build/imx-boot/imx-optee-os/out/export-ta_arm64/lib/libutee.a(tee_api.o)
 .debug_macro   0x0000000000000000       0x7c /home/atmark/optee-build/imx-boot/imx-optee-os/out/export-ta_arm64/lib/libutee.a(tee_api.o)
 .debug_macro   0x0000000000000000      0x1a7 /home/atmark/optee-build/imx-boot/imx-optee-os/out/export-ta_arm64/lib/libutee.a(tee_api.o)
 .debug_macro   0x0000000000000000       0xc4 /home/atmark/optee-build/imx-boot/imx-optee-os/out/export-ta_arm64/lib/libutee.a(tee_api.o)
 .debug_macro   0x0000000000000000       0x22 /home/atmark/optee-build/imx-boot/imx-optee-os/out/export-ta_arm64/lib/libutee.a(tee_api.o)
 .debug_macro   0x0000000000000000       0x2e /home/atmark/optee-build/imx-boot/imx-optee-os/out/export-ta_arm64/lib/libutee.a(tee_api.o)
 .debug_macro   0x0000000000000000       0x2d /home/atmark/optee-build/imx-boot/imx-optee-os/out/export-ta_arm64/lib/libutee.a(tee_api.o)
 .debug_macro   0x0000000000000000       0x16 /home/atmark/optee-build/imx-boot/imx-optee-os/out/export-ta_arm64/lib/libutee.a(tee_api.o)
 .debug_macro   0x0000000000000000      0x9b3 /home/atmark/optee-build/imx-boot/imx-optee-os/out/export-ta_arm64/lib/libutee.a(tee_api.o)
 .debug_macro   0x0000000000000000       0x35 /home/atmark/optee-build/imx-boot/imx-optee-os/out/export-ta_arm64/lib/libutee.a(tee_api.o)
 .debug_macro   0x0000000000000000       0x58 /home/atmark/optee-build/imx-boot/imx-optee-os/out/export-ta_arm64/lib/libutee.a(tee_api.o)
 .debug_macro   0x0000000000000000       0x34 /home/atmark/optee-build/imx-boot/imx-optee-os/out/export-ta_arm64/lib/libutee.a(tee_api.o)
 .debug_macro   0x0000000000000000       0x78 /home/atmark/optee-build/imx-boot/imx-optee-os/out/export-ta_arm64/lib/libutee.a(tee_api.o)
 .debug_macro   0x0000000000000000       0xd6 /home/atmark/optee-build/imx-boot/imx-optee-os/out/export-ta_arm64/lib/libutee.a(tee_api.o)
 .debug_macro   0x0000000000000000       0xe1 /home/atmark/optee-build/imx-boot/imx-optee-os/out/export-ta_arm64/lib/libutee.a(tee_api.o)
 .debug_macro   0x0000000000000000       0x76 /home/atmark/optee-build/imx-boot/imx-optee-os/out/export-ta_arm64/lib/libutee.a(tee_api.o)
 .group         0x0000000000000000        0xc /home/atmark/optee-build/imx-boot/imx-optee-os/out/export-ta_arm64/lib/libutee.a(tee_api_arith_mpi.o)
 .group         0x0000000000000000        0xc /home/atmark/optee-build/imx-boot/imx-optee-os/out/export-ta_arm64/lib/libutee.a(tee_api_arith_mpi.o)
 .group         0x0000000000000000        0xc /home/atmark/optee-build/imx-boot/imx-optee-os/out/export-ta_arm64/lib/libutee.a(tee_api_arith_mpi.o)
 .group         0x0000000000000000        0xc /home/atmark/optee-build/imx-boot/imx-optee-os/out/export-ta_arm64/lib/libutee.a(tee_api_arith_mpi.o)
 .group         0x0000000000000000        0xc /home/atmark/optee-build/imx-boot/imx-optee-os/out/export-ta_arm64/lib/libutee.a(tee_api_arith_mpi.o)
 .group         0x0000000000000000        0xc /home/atmark/optee-build/imx-boot/imx-optee-os/out/export-ta_arm64/lib/libutee.a(tee_api_arith_mpi.o)
 .group         0x0000000000000000        0xc /home/atmark/optee-build/imx-boot/imx-optee-os/out/export-ta_arm64/lib/libutee.a(tee_api_arith_mpi.o)
 .group         0x0000000000000000        0xc /home/atmark/optee-build/imx-boot/imx-optee-os/out/export-ta_arm64/lib/libutee.a(tee_api_arith_mpi.o)
 .group         0x0000000000000000        0xc /home/atmark/optee-build/imx-boot/imx-optee-os/out/export-ta_arm64/lib/libutee.a(tee_api_arith_mpi.o)
 .group         0x0000000000000000        0xc /home/atmark/optee-build/imx-boot/imx-optee-os/out/export-ta_arm64/lib/libutee.a(tee_api_arith_mpi.o)
 .group         0x0000000000000000        0xc /home/atmark/optee-build/imx-boot/imx-optee-os/out/export-ta_arm64/lib/libutee.a(tee_api_arith_mpi.o)
 .group         0x0000000000000000        0xc /home/atmark/optee-build/imx-boot/imx-optee-os/out/export-ta_arm64/lib/libutee.a(tee_api_arith_mpi.o)
 .group         0x0000000000000000        0xc /home/atmark/optee-build/imx-boot/imx-optee-os/out/export-ta_arm64/lib/libutee.a(tee_api_arith_mpi.o)
 .group         0x0000000000000000        0xc /home/atmark/optee-build/imx-boot/imx-optee-os/out/export-ta_arm64/lib/libutee.a(tee_api_arith_mpi.o)
 .group         0x0000000000000000        0xc /home/atmark/optee-build/imx-boot/imx-optee-os/out/export-ta_arm64/lib/libutee.a(tee_api_arith_mpi.o)
 .group         0x0000000000000000        0xc /home/atmark/optee-build/imx-boot/imx-optee-os/out/export-ta_arm64/lib/libutee.a(tee_api_arith_mpi.o)
 .group         0x0000000000000000        0xc /home/atmark/optee-build/imx-boot/imx-optee-os/out/export-ta_arm64/lib/libutee.a(tee_api_arith_mpi.o)
 .group         0x0000000000000000        0xc /home/atmark/optee-build/imx-boot/imx-optee-os/out/export-ta_arm64/lib/libutee.a(tee_api_arith_mpi.o)
 .group         0x0000000000000000        0xc /home/atmark/optee-build/imx-boot/imx-optee-os/out/export-ta_arm64/lib/libutee.a(tee_api_arith_mpi.o)
 .group         0x0000000000000000        0xc /home/atmark/optee-build/imx-boot/imx-optee-os/out/export-ta_arm64/lib/libutee.a(tee_api_arith_mpi.o)
 .group         0x0000000000000000        0xc /home/atmark/optee-build/imx-boot/imx-optee-os/out/export-ta_arm64/lib/libutee.a(tee_api_arith_mpi.o)
 .group         0x0000000000000000        0xc /home/atmark/optee-build/imx-boot/imx-optee-os/out/export-ta_arm64/lib/libutee.a(tee_api_arith_mpi.o)
 .debug_macro   0x0000000000000000      0x62f /home/atmark/optee-build/imx-boot/imx-optee-os/out/export-ta_arm64/lib/libutee.a(tee_api_arith_mpi.o)
 .debug_macro   0x0000000000000000       0xed /home/atmark/optee-build/imx-boot/imx-optee-os/out/export-ta_arm64/lib/libutee.a(tee_api_arith_mpi.o)
 .debug_macro   0x0000000000000000       0x58 /home/atmark/optee-build/imx-boot/imx-optee-os/out/export-ta_arm64/lib/libutee.a(tee_api_arith_mpi.o)
 .debug_macro   0x0000000000000000       0x22 /home/atmark/optee-build/imx-boot/imx-optee-os/out/export-ta_arm64/lib/libutee.a(tee_api_arith_mpi.o)
 .debug_macro   0x0000000000000000      0x16d /home/atmark/optee-build/imx-boot/imx-optee-os/out/export-ta_arm64/lib/libutee.a(tee_api_arith_mpi.o)
 .debug_macro   0x0000000000000000       0x34 /home/atmark/optee-build/imx-boot/imx-optee-os/out/export-ta_arm64/lib/libutee.a(tee_api_arith_mpi.o)
 .debug_macro   0x0000000000000000       0x78 /home/atmark/optee-build/imx-boot/imx-optee-os/out/export-ta_arm64/lib/libutee.a(tee_api_arith_mpi.o)
 .debug_macro   0x0000000000000000       0x10 /home/atmark/optee-build/imx-boot/imx-optee-os/out/export-ta_arm64/lib/libutee.a(tee_api_arith_mpi.o)
 .debug_macro   0x0000000000000000       0x7c /home/atmark/optee-build/imx-boot/imx-optee-os/out/export-ta_arm64/lib/libutee.a(tee_api_arith_mpi.o)
 .debug_macro   0x0000000000000000      0x1a7 /home/atmark/optee-build/imx-boot/imx-optee-os/out/export-ta_arm64/lib/libutee.a(tee_api_arith_mpi.o)
 .debug_macro   0x0000000000000000       0xc4 /home/atmark/optee-build/imx-boot/imx-optee-os/out/export-ta_arm64/lib/libutee.a(tee_api_arith_mpi.o)
 .debug_macro   0x0000000000000000       0x2e /home/atmark/optee-build/imx-boot/imx-optee-os/out/export-ta_arm64/lib/libutee.a(tee_api_arith_mpi.o)
 .debug_macro   0x0000000000000000       0x16 /home/atmark/optee-build/imx-boot/imx-optee-os/out/export-ta_arm64/lib/libutee.a(tee_api_arith_mpi.o)
 .debug_macro   0x0000000000000000      0x9b3 /home/atmark/optee-build/imx-boot/imx-optee-os/out/export-ta_arm64/lib/libutee.a(tee_api_arith_mpi.o)
 .debug_macro   0x0000000000000000       0x35 /home/atmark/optee-build/imx-boot/imx-optee-os/out/export-ta_arm64/lib/libutee.a(tee_api_arith_mpi.o)
 .debug_macro   0x0000000000000000       0x34 /home/atmark/optee-build/imx-boot/imx-optee-os/out/export-ta_arm64/lib/libutee.a(tee_api_arith_mpi.o)
 .debug_macro   0x0000000000000000       0xd6 /home/atmark/optee-build/imx-boot/imx-optee-os/out/export-ta_arm64/lib/libutee.a(tee_api_arith_mpi.o)
 .debug_macro   0x0000000000000000       0xe1 /home/atmark/optee-build/imx-boot/imx-optee-os/out/export-ta_arm64/lib/libutee.a(tee_api_arith_mpi.o)
 .group         0x0000000000000000        0xc /home/atmark/optee-build/imx-boot/imx-optee-os/out/export-ta_arm64/lib/libutee.a(tee_api_objects.o)
 .group         0x0000000000000000        0xc /home/atmark/optee-build/imx-boot/imx-optee-os/out/export-ta_arm64/lib/libutee.a(tee_api_objects.o)
 .group         0x0000000000000000        0xc /home/atmark/optee-build/imx-boot/imx-optee-os/out/export-ta_arm64/lib/libutee.a(tee_api_objects.o)
 .group         0x0000000000000000        0xc /home/atmark/optee-build/imx-boot/imx-optee-os/out/export-ta_arm64/lib/libutee.a(tee_api_objects.o)
 .group         0x0000000000000000        0xc /home/atmark/optee-build/imx-boot/imx-optee-os/out/export-ta_arm64/lib/libutee.a(tee_api_objects.o)
 .group         0x0000000000000000        0xc /home/atmark/optee-build/imx-boot/imx-optee-os/out/export-ta_arm64/lib/libutee.a(tee_api_objects.o)
 .group         0x0000000000000000        0xc /home/atmark/optee-build/imx-boot/imx-optee-os/out/export-ta_arm64/lib/libutee.a(tee_api_objects.o)
 .group         0x0000000000000000        0xc /home/atmark/optee-build/imx-boot/imx-optee-os/out/export-ta_arm64/lib/libutee.a(tee_api_objects.o)
 .group         0x0000000000000000        0xc /home/atmark/optee-build/imx-boot/imx-optee-os/out/export-ta_arm64/lib/libutee.a(tee_api_objects.o)
 .group         0x0000000000000000        0xc /home/atmark/optee-build/imx-boot/imx-optee-os/out/export-ta_arm64/lib/libutee.a(tee_api_objects.o)
 .group         0x0000000000000000        0xc /home/atmark/optee-build/imx-boot/imx-optee-os/out/export-ta_arm64/lib/libutee.a(tee_api_objects.o)
 .group         0x0000000000000000        0xc /home/atmark/optee-build/imx-boot/imx-optee-os/out/export-ta_arm64/lib/libutee.a(tee_api_objects.o)
 .group         0x0000000000000000        0xc /home/atmark/optee-build/imx-boot/imx-optee-os/out/export-ta_arm64/lib/libutee.a(tee_api_objects.o)
 .group         0x0000000000000000        0xc /home/atmark/optee-build/imx-boot/imx-optee-os/out/export-ta_arm64/lib/libutee.a(tee_api_objects.o)
 .group         0x0000000000000000        0xc /home/atmark/optee-build/imx-boot/imx-optee-os/out/export-ta_arm64/lib/libutee.a(tee_api_objects.o)
 .group         0x0000000000000000        0xc /home/atmark/optee-build/imx-boot/imx-optee-os/out/export-ta_arm64/lib/libutee.a(tee_api_objects.o)
 .debug_macro   0x0000000000000000      0x62f /home/atmark/optee-build/imx-boot/imx-optee-os/out/export-ta_arm64/lib/libutee.a(tee_api_objects.o)
 .debug_macro   0x0000000000000000       0xed /home/atmark/optee-build/imx-boot/imx-optee-os/out/export-ta_arm64/lib/libutee.a(tee_api_objects.o)
 .debug_macro   0x0000000000000000      0x16d /home/atmark/optee-build/imx-boot/imx-optee-os/out/export-ta_arm64/lib/libutee.a(tee_api_objects.o)
 .debug_macro   0x0000000000000000       0x7c /home/atmark/optee-build/imx-boot/imx-optee-os/out/export-ta_arm64/lib/libutee.a(tee_api_objects.o)
 .debug_macro   0x0000000000000000      0x1a7 /home/atmark/optee-build/imx-boot/imx-optee-os/out/export-ta_arm64/lib/libutee.a(tee_api_objects.o)
 .debug_macro   0x0000000000000000       0xc4 /home/atmark/optee-build/imx-boot/imx-optee-os/out/export-ta_arm64/lib/libutee.a(tee_api_objects.o)
 .debug_macro   0x0000000000000000       0x22 /home/atmark/optee-build/imx-boot/imx-optee-os/out/export-ta_arm64/lib/libutee.a(tee_api_objects.o)
 .debug_macro   0x0000000000000000       0x2e /home/atmark/optee-build/imx-boot/imx-optee-os/out/export-ta_arm64/lib/libutee.a(tee_api_objects.o)
 .debug_macro   0x0000000000000000       0x2d /home/atmark/optee-build/imx-boot/imx-optee-os/out/export-ta_arm64/lib/libutee.a(tee_api_objects.o)
 .debug_macro   0x0000000000000000       0x16 /home/atmark/optee-build/imx-boot/imx-optee-os/out/export-ta_arm64/lib/libutee.a(tee_api_objects.o)
 .debug_macro   0x0000000000000000      0x9b3 /home/atmark/optee-build/imx-boot/imx-optee-os/out/export-ta_arm64/lib/libutee.a(tee_api_objects.o)
 .debug_macro   0x0000000000000000       0x35 /home/atmark/optee-build/imx-boot/imx-optee-os/out/export-ta_arm64/lib/libutee.a(tee_api_objects.o)
 .debug_macro   0x0000000000000000       0x58 /home/atmark/optee-build/imx-boot/imx-optee-os/out/export-ta_arm64/lib/libutee.a(tee_api_objects.o)
 .debug_macro   0x0000000000000000       0x34 /home/atmark/optee-build/imx-boot/imx-optee-os/out/export-ta_arm64/lib/libutee.a(tee_api_objects.o)
 .debug_macro   0x0000000000000000       0x78 /home/atmark/optee-build/imx-boot/imx-optee-os/out/export-ta_arm64/lib/libutee.a(tee_api_objects.o)
 .group         0x0000000000000000        0xc /home/atmark/optee-build/imx-boot/imx-optee-os/out/export-ta_arm64/lib/libutee.a(tee_socket_pta.o)
 .group         0x0000000000000000        0xc /home/atmark/optee-build/imx-boot/imx-optee-os/out/export-ta_arm64/lib/libutee.a(tee_socket_pta.o)
 .group         0x0000000000000000        0xc /home/atmark/optee-build/imx-boot/imx-optee-os/out/export-ta_arm64/lib/libutee.a(tee_socket_pta.o)
 .group         0x0000000000000000        0xc /home/atmark/optee-build/imx-boot/imx-optee-os/out/export-ta_arm64/lib/libutee.a(tee_socket_pta.o)
 .group         0x0000000000000000        0xc /home/atmark/optee-build/imx-boot/imx-optee-os/out/export-ta_arm64/lib/libutee.a(tee_socket_pta.o)
 .group         0x0000000000000000        0xc /home/atmark/optee-build/imx-boot/imx-optee-os/out/export-ta_arm64/lib/libutee.a(tee_socket_pta.o)
 .group         0x0000000000000000        0xc /home/atmark/optee-build/imx-boot/imx-optee-os/out/export-ta_arm64/lib/libutee.a(tee_socket_pta.o)
 .group         0x0000000000000000        0xc /home/atmark/optee-build/imx-boot/imx-optee-os/out/export-ta_arm64/lib/libutee.a(tee_socket_pta.o)
 .group         0x0000000000000000        0xc /home/atmark/optee-build/imx-boot/imx-optee-os/out/export-ta_arm64/lib/libutee.a(tee_socket_pta.o)
 .group         0x0000000000000000        0xc /home/atmark/optee-build/imx-boot/imx-optee-os/out/export-ta_arm64/lib/libutee.a(tee_socket_pta.o)
 .group         0x0000000000000000        0xc /home/atmark/optee-build/imx-boot/imx-optee-os/out/export-ta_arm64/lib/libutee.a(tee_socket_pta.o)
 .group         0x0000000000000000        0xc /home/atmark/optee-build/imx-boot/imx-optee-os/out/export-ta_arm64/lib/libutee.a(tee_socket_pta.o)
 .group         0x0000000000000000        0xc /home/atmark/optee-build/imx-boot/imx-optee-os/out/export-ta_arm64/lib/libutee.a(tee_socket_pta.o)
 .group         0x0000000000000000        0xc /home/atmark/optee-build/imx-boot/imx-optee-os/out/export-ta_arm64/lib/libutee.a(tee_socket_pta.o)
 .group         0x0000000000000000        0xc /home/atmark/optee-build/imx-boot/imx-optee-os/out/export-ta_arm64/lib/libutee.a(tee_socket_pta.o)
 .group         0x0000000000000000        0xc /home/atmark/optee-build/imx-boot/imx-optee-os/out/export-ta_arm64/lib/libutee.a(tee_socket_pta.o)
 .group         0x0000000000000000        0xc /home/atmark/optee-build/imx-boot/imx-optee-os/out/export-ta_arm64/lib/libutee.a(tee_socket_pta.o)
 .group         0x0000000000000000        0xc /home/atmark/optee-build/imx-boot/imx-optee-os/out/export-ta_arm64/lib/libutee.a(tee_socket_pta.o)
 .debug_macro   0x0000000000000000      0x62f /home/atmark/optee-build/imx-boot/imx-optee-os/out/export-ta_arm64/lib/libutee.a(tee_socket_pta.o)
 .debug_macro   0x0000000000000000       0x46 /home/atmark/optee-build/imx-boot/imx-optee-os/out/export-ta_arm64/lib/libutee.a(tee_socket_pta.o)
 .debug_macro   0x0000000000000000      0x16d /home/atmark/optee-build/imx-boot/imx-optee-os/out/export-ta_arm64/lib/libutee.a(tee_socket_pta.o)
 .debug_macro   0x0000000000000000       0x16 /home/atmark/optee-build/imx-boot/imx-optee-os/out/export-ta_arm64/lib/libutee.a(tee_socket_pta.o)
 .debug_macro   0x0000000000000000       0xed /home/atmark/optee-build/imx-boot/imx-optee-os/out/export-ta_arm64/lib/libutee.a(tee_socket_pta.o)
 .debug_macro   0x0000000000000000      0x9b3 /home/atmark/optee-build/imx-boot/imx-optee-os/out/export-ta_arm64/lib/libutee.a(tee_socket_pta.o)
 .debug_macro   0x0000000000000000       0x7c /home/atmark/optee-build/imx-boot/imx-optee-os/out/export-ta_arm64/lib/libutee.a(tee_socket_pta.o)
 .debug_macro   0x0000000000000000      0x1a7 /home/atmark/optee-build/imx-boot/imx-optee-os/out/export-ta_arm64/lib/libutee.a(tee_socket_pta.o)
 .debug_macro   0x0000000000000000       0xc4 /home/atmark/optee-build/imx-boot/imx-optee-os/out/export-ta_arm64/lib/libutee.a(tee_socket_pta.o)
 .debug_macro   0x0000000000000000       0x22 /home/atmark/optee-build/imx-boot/imx-optee-os/out/export-ta_arm64/lib/libutee.a(tee_socket_pta.o)
 .debug_macro   0x0000000000000000       0x35 /home/atmark/optee-build/imx-boot/imx-optee-os/out/export-ta_arm64/lib/libutee.a(tee_socket_pta.o)
 .debug_macro   0x0000000000000000       0x58 /home/atmark/optee-build/imx-boot/imx-optee-os/out/export-ta_arm64/lib/libutee.a(tee_socket_pta.o)
 .debug_macro   0x0000000000000000       0x34 /home/atmark/optee-build/imx-boot/imx-optee-os/out/export-ta_arm64/lib/libutee.a(tee_socket_pta.o)
 .debug_macro   0x0000000000000000       0x78 /home/atmark/optee-build/imx-boot/imx-optee-os/out/export-ta_arm64/lib/libutee.a(tee_socket_pta.o)
 .debug_macro   0x0000000000000000       0x10 /home/atmark/optee-build/imx-boot/imx-optee-os/out/export-ta_arm64/lib/libutee.a(tee_socket_pta.o)
 .debug_macro   0x0000000000000000       0x16 /home/atmark/optee-build/imx-boot/imx-optee-os/out/export-ta_arm64/lib/libutee.a(tee_socket_pta.o)
 .debug_macro   0x0000000000000000       0x22 /home/atmark/optee-build/imx-boot/imx-optee-os/out/export-ta_arm64/lib/libutee.a(tee_socket_pta.o)
 .group         0x0000000000000000        0xc /home/atmark/optee-build/imx-boot/imx-optee-os/out/export-ta_arm64/lib/libutee.a(tee_system_pta.o)
 .group         0x0000000000000000        0xc /home/atmark/optee-build/imx-boot/imx-optee-os/out/export-ta_arm64/lib/libutee.a(tee_system_pta.o)
 .group         0x0000000000000000        0xc /home/atmark/optee-build/imx-boot/imx-optee-os/out/export-ta_arm64/lib/libutee.a(tee_system_pta.o)
 .group         0x0000000000000000        0xc /home/atmark/optee-build/imx-boot/imx-optee-os/out/export-ta_arm64/lib/libutee.a(tee_system_pta.o)
 .group         0x0000000000000000        0xc /home/atmark/optee-build/imx-boot/imx-optee-os/out/export-ta_arm64/lib/libutee.a(tee_system_pta.o)
 .group         0x0000000000000000        0xc /home/atmark/optee-build/imx-boot/imx-optee-os/out/export-ta_arm64/lib/libutee.a(tee_system_pta.o)
 .group         0x0000000000000000        0xc /home/atmark/optee-build/imx-boot/imx-optee-os/out/export-ta_arm64/lib/libutee.a(tee_system_pta.o)
 .group         0x0000000000000000        0xc /home/atmark/optee-build/imx-boot/imx-optee-os/out/export-ta_arm64/lib/libutee.a(tee_system_pta.o)
 .group         0x0000000000000000        0xc /home/atmark/optee-build/imx-boot/imx-optee-os/out/export-ta_arm64/lib/libutee.a(tee_system_pta.o)
 .group         0x0000000000000000        0xc /home/atmark/optee-build/imx-boot/imx-optee-os/out/export-ta_arm64/lib/libutee.a(tee_system_pta.o)
 .group         0x0000000000000000        0xc /home/atmark/optee-build/imx-boot/imx-optee-os/out/export-ta_arm64/lib/libutee.a(tee_system_pta.o)
 .group         0x0000000000000000        0xc /home/atmark/optee-build/imx-boot/imx-optee-os/out/export-ta_arm64/lib/libutee.a(tee_system_pta.o)
 .group         0x0000000000000000        0xc /home/atmark/optee-build/imx-boot/imx-optee-os/out/export-ta_arm64/lib/libutee.a(tee_system_pta.o)
 .group         0x0000000000000000        0xc /home/atmark/optee-build/imx-boot/imx-optee-os/out/export-ta_arm64/lib/libutee.a(tee_system_pta.o)
 .group         0x0000000000000000        0xc /home/atmark/optee-build/imx-boot/imx-optee-os/out/export-ta_arm64/lib/libutee.a(tee_system_pta.o)
 .group         0x0000000000000000        0xc /home/atmark/optee-build/imx-boot/imx-optee-os/out/export-ta_arm64/lib/libutee.a(tee_system_pta.o)
 .group         0x0000000000000000        0xc /home/atmark/optee-build/imx-boot/imx-optee-os/out/export-ta_arm64/lib/libutee.a(tee_system_pta.o)
 .group         0x0000000000000000        0xc /home/atmark/optee-build/imx-boot/imx-optee-os/out/export-ta_arm64/lib/libutee.a(tee_system_pta.o)
 .group         0x0000000000000000        0xc /home/atmark/optee-build/imx-boot/imx-optee-os/out/export-ta_arm64/lib/libutee.a(tee_system_pta.o)
 .debug_macro   0x0000000000000000      0x62f /home/atmark/optee-build/imx-boot/imx-optee-os/out/export-ta_arm64/lib/libutee.a(tee_system_pta.o)
 .debug_macro   0x0000000000000000       0xed /home/atmark/optee-build/imx-boot/imx-optee-os/out/export-ta_arm64/lib/libutee.a(tee_system_pta.o)
 .debug_macro   0x0000000000000000       0x7c /home/atmark/optee-build/imx-boot/imx-optee-os/out/export-ta_arm64/lib/libutee.a(tee_system_pta.o)
 .debug_macro   0x0000000000000000      0x1a7 /home/atmark/optee-build/imx-boot/imx-optee-os/out/export-ta_arm64/lib/libutee.a(tee_system_pta.o)
 .debug_macro   0x0000000000000000       0xc4 /home/atmark/optee-build/imx-boot/imx-optee-os/out/export-ta_arm64/lib/libutee.a(tee_system_pta.o)
 .debug_macro   0x0000000000000000       0xdb /home/atmark/optee-build/imx-boot/imx-optee-os/out/export-ta_arm64/lib/libutee.a(tee_system_pta.o)
 .debug_macro   0x0000000000000000      0x16d /home/atmark/optee-build/imx-boot/imx-optee-os/out/export-ta_arm64/lib/libutee.a(tee_system_pta.o)
 .debug_macro   0x0000000000000000       0x16 /home/atmark/optee-build/imx-boot/imx-optee-os/out/export-ta_arm64/lib/libutee.a(tee_system_pta.o)
 .debug_macro   0x0000000000000000       0x58 /home/atmark/optee-build/imx-boot/imx-optee-os/out/export-ta_arm64/lib/libutee.a(tee_system_pta.o)
 .debug_macro   0x0000000000000000       0x22 /home/atmark/optee-build/imx-boot/imx-optee-os/out/export-ta_arm64/lib/libutee.a(tee_system_pta.o)
 .debug_macro   0x0000000000000000       0x34 /home/atmark/optee-build/imx-boot/imx-optee-os/out/export-ta_arm64/lib/libutee.a(tee_system_pta.o)
 .debug_macro   0x0000000000000000       0x78 /home/atmark/optee-build/imx-boot/imx-optee-os/out/export-ta_arm64/lib/libutee.a(tee_system_pta.o)
 .debug_macro   0x0000000000000000       0xd6 /home/atmark/optee-build/imx-boot/imx-optee-os/out/export-ta_arm64/lib/libutee.a(tee_system_pta.o)
 .debug_macro   0x0000000000000000      0x9b3 /home/atmark/optee-build/imx-boot/imx-optee-os/out/export-ta_arm64/lib/libutee.a(tee_system_pta.o)
 .debug_macro   0x0000000000000000       0x35 /home/atmark/optee-build/imx-boot/imx-optee-os/out/export-ta_arm64/lib/libutee.a(tee_system_pta.o)
 .debug_macro   0x0000000000000000       0x10 /home/atmark/optee-build/imx-boot/imx-optee-os/out/export-ta_arm64/lib/libutee.a(tee_system_pta.o)
 .debug_macro   0x0000000000000000       0x2e /home/atmark/optee-build/imx-boot/imx-optee-os/out/export-ta_arm64/lib/libutee.a(tee_system_pta.o)
 .group         0x0000000000000000        0xc /home/atmark/optee-build/imx-boot/imx-optee-os/out/export-ta_arm64/lib/libutee.a(tcb.o)
 .group         0x0000000000000000        0xc /home/atmark/optee-build/imx-boot/imx-optee-os/out/export-ta_arm64/lib/libutee.a(tcb.o)
 .group         0x0000000000000000        0xc /home/atmark/optee-build/imx-boot/imx-optee-os/out/export-ta_arm64/lib/libutee.a(tcb.o)
 .group         0x0000000000000000        0xc /home/atmark/optee-build/imx-boot/imx-optee-os/out/export-ta_arm64/lib/libutee.a(tcb.o)
 .group         0x0000000000000000        0xc /home/atmark/optee-build/imx-boot/imx-optee-os/out/export-ta_arm64/lib/libutee.a(tcb.o)
 .group         0x0000000000000000        0xc /home/atmark/optee-build/imx-boot/imx-optee-os/out/export-ta_arm64/lib/libutee.a(tcb.o)
 .group         0x0000000000000000        0xc /home/atmark/optee-build/imx-boot/imx-optee-os/out/export-ta_arm64/lib/libutee.a(tcb.o)
 .group         0x0000000000000000        0xc /home/atmark/optee-build/imx-boot/imx-optee-os/out/export-ta_arm64/lib/libutee.a(tcb.o)
 .group         0x0000000000000000        0xc /home/atmark/optee-build/imx-boot/imx-optee-os/out/export-ta_arm64/lib/libutee.a(tcb.o)
 .group         0x0000000000000000        0xc /home/atmark/optee-build/imx-boot/imx-optee-os/out/export-ta_arm64/lib/libutee.a(tcb.o)
 .group         0x0000000000000000        0xc /home/atmark/optee-build/imx-boot/imx-optee-os/out/export-ta_arm64/lib/libutee.a(tcb.o)
 .group         0x0000000000000000        0xc /home/atmark/optee-build/imx-boot/imx-optee-os/out/export-ta_arm64/lib/libutee.a(tcb.o)
 .group         0x0000000000000000        0xc /home/atmark/optee-build/imx-boot/imx-optee-os/out/export-ta_arm64/lib/libutee.a(tcb.o)
 .group         0x0000000000000000        0xc /home/atmark/optee-build/imx-boot/imx-optee-os/out/export-ta_arm64/lib/libutee.a(tcb.o)
 .group         0x0000000000000000        0xc /home/atmark/optee-build/imx-boot/imx-optee-os/out/export-ta_arm64/lib/libutee.a(tcb.o)
 .group         0x0000000000000000        0xc /home/atmark/optee-build/imx-boot/imx-optee-os/out/export-ta_arm64/lib/libutee.a(tcb.o)
 .group         0x0000000000000000        0xc /home/atmark/optee-build/imx-boot/imx-optee-os/out/export-ta_arm64/lib/libutee.a(tcb.o)
 .group         0x0000000000000000        0xc /home/atmark/optee-build/imx-boot/imx-optee-os/out/export-ta_arm64/lib/libutee.a(tcb.o)
 .group         0x0000000000000000        0xc /home/atmark/optee-build/imx-boot/imx-optee-os/out/export-ta_arm64/lib/libutee.a(tcb.o)
 .group         0x0000000000000000        0xc /home/atmark/optee-build/imx-boot/imx-optee-os/out/export-ta_arm64/lib/libutee.a(tcb.o)
 .group         0x0000000000000000        0xc /home/atmark/optee-build/imx-boot/imx-optee-os/out/export-ta_arm64/lib/libutee.a(tcb.o)
 .group         0x0000000000000000        0xc /home/atmark/optee-build/imx-boot/imx-optee-os/out/export-ta_arm64/lib/libutee.a(tcb.o)
 .group         0x0000000000000000        0xc /home/atmark/optee-build/imx-boot/imx-optee-os/out/export-ta_arm64/lib/libutee.a(tcb.o)
 .debug_macro   0x0000000000000000      0x62f /home/atmark/optee-build/imx-boot/imx-optee-os/out/export-ta_arm64/lib/libutee.a(tcb.o)
 .debug_macro   0x0000000000000000       0xed /home/atmark/optee-build/imx-boot/imx-optee-os/out/export-ta_arm64/lib/libutee.a(tcb.o)
 .debug_macro   0x0000000000000000       0x7c /home/atmark/optee-build/imx-boot/imx-optee-os/out/export-ta_arm64/lib/libutee.a(tcb.o)
 .debug_macro   0x0000000000000000      0x1a7 /home/atmark/optee-build/imx-boot/imx-optee-os/out/export-ta_arm64/lib/libutee.a(tcb.o)
 .debug_macro   0x0000000000000000       0x58 /home/atmark/optee-build/imx-boot/imx-optee-os/out/export-ta_arm64/lib/libutee.a(tcb.o)
 .debug_macro   0x0000000000000000       0x22 /home/atmark/optee-build/imx-boot/imx-optee-os/out/export-ta_arm64/lib/libutee.a(tcb.o)
 .debug_macro   0x0000000000000000      0x16d /home/atmark/optee-build/imx-boot/imx-optee-os/out/export-ta_arm64/lib/libutee.a(tcb.o)
 .debug_macro   0x0000000000000000       0x34 /home/atmark/optee-build/imx-boot/imx-optee-os/out/export-ta_arm64/lib/libutee.a(tcb.o)
 .debug_macro   0x0000000000000000       0x78 /home/atmark/optee-build/imx-boot/imx-optee-os/out/export-ta_arm64/lib/libutee.a(tcb.o)
 .debug_macro   0x0000000000000000       0x10 /home/atmark/optee-build/imx-boot/imx-optee-os/out/export-ta_arm64/lib/libutee.a(tcb.o)
 .debug_macro   0x0000000000000000     0x1570 /home/atmark/optee-build/imx-boot/imx-optee-os/out/export-ta_arm64/lib/libutee.a(tcb.o)
 .debug_macro   0x0000000000000000       0x5f /home/atmark/optee-build/imx-boot/imx-optee-os/out/export-ta_arm64/lib/libutee.a(tcb.o)
 .debug_macro   0x0000000000000000       0xc4 /home/atmark/optee-build/imx-boot/imx-optee-os/out/export-ta_arm64/lib/libutee.a(tcb.o)
 .debug_macro   0x0000000000000000       0x2e /home/atmark/optee-build/imx-boot/imx-optee-os/out/export-ta_arm64/lib/libutee.a(tcb.o)
 .debug_macro   0x0000000000000000       0x2d /home/atmark/optee-build/imx-boot/imx-optee-os/out/export-ta_arm64/lib/libutee.a(tcb.o)
 .debug_macro   0x0000000000000000       0x16 /home/atmark/optee-build/imx-boot/imx-optee-os/out/export-ta_arm64/lib/libutee.a(tcb.o)
 .debug_macro   0x0000000000000000      0x2e2 /home/atmark/optee-build/imx-boot/imx-optee-os/out/export-ta_arm64/lib/libutee.a(tcb.o)
 .debug_macro   0x0000000000000000      0x9b3 /home/atmark/optee-build/imx-boot/imx-optee-os/out/export-ta_arm64/lib/libutee.a(tcb.o)
 .debug_macro   0x0000000000000000       0x35 /home/atmark/optee-build/imx-boot/imx-optee-os/out/export-ta_arm64/lib/libutee.a(tcb.o)
 .debug_macro   0x0000000000000000       0xe1 /home/atmark/optee-build/imx-boot/imx-optee-os/out/export-ta_arm64/lib/libutee.a(tcb.o)
 .debug_macro   0x0000000000000000       0x76 /home/atmark/optee-build/imx-boot/imx-optee-os/out/export-ta_arm64/lib/libutee.a(tcb.o)
 .group         0x0000000000000000        0xc /home/atmark/optee-build/imx-boot/imx-optee-os/out/export-ta_arm64/lib/libmbedtls.a(bignum.o)
 .group         0x0000000000000000        0xc /home/atmark/optee-build/imx-boot/imx-optee-os/out/export-ta_arm64/lib/libmbedtls.a(bignum.o)
 .group         0x0000000000000000        0xc /home/atmark/optee-build/imx-boot/imx-optee-os/out/export-ta_arm64/lib/libmbedtls.a(bignum.o)
 .group         0x0000000000000000        0xc /home/atmark/optee-build/imx-boot/imx-optee-os/out/export-ta_arm64/lib/libmbedtls.a(bignum.o)
 .group         0x0000000000000000        0xc /home/atmark/optee-build/imx-boot/imx-optee-os/out/export-ta_arm64/lib/libmbedtls.a(bignum.o)
 .group         0x0000000000000000        0xc /home/atmark/optee-build/imx-boot/imx-optee-os/out/export-ta_arm64/lib/libmbedtls.a(bignum.o)
 .group         0x0000000000000000        0xc /home/atmark/optee-build/imx-boot/imx-optee-os/out/export-ta_arm64/lib/libmbedtls.a(bignum.o)
 .group         0x0000000000000000        0xc /home/atmark/optee-build/imx-boot/imx-optee-os/out/export-ta_arm64/lib/libmbedtls.a(bignum.o)
 .group         0x0000000000000000        0xc /home/atmark/optee-build/imx-boot/imx-optee-os/out/export-ta_arm64/lib/libmbedtls.a(bignum.o)
 .group         0x0000000000000000        0xc /home/atmark/optee-build/imx-boot/imx-optee-os/out/export-ta_arm64/lib/libmbedtls.a(bignum.o)
 .group         0x0000000000000000        0xc /home/atmark/optee-build/imx-boot/imx-optee-os/out/export-ta_arm64/lib/libmbedtls.a(bignum.o)
 .group         0x0000000000000000        0xc /home/atmark/optee-build/imx-boot/imx-optee-os/out/export-ta_arm64/lib/libmbedtls.a(bignum.o)
 .group         0x0000000000000000        0xc /home/atmark/optee-build/imx-boot/imx-optee-os/out/export-ta_arm64/lib/libmbedtls.a(bignum.o)
 .group         0x0000000000000000        0xc /home/atmark/optee-build/imx-boot/imx-optee-os/out/export-ta_arm64/lib/libmbedtls.a(bignum.o)
 .group         0x0000000000000000        0xc /home/atmark/optee-build/imx-boot/imx-optee-os/out/export-ta_arm64/lib/libmbedtls.a(bignum.o)
 .group         0x0000000000000000        0xc /home/atmark/optee-build/imx-boot/imx-optee-os/out/export-ta_arm64/lib/libmbedtls.a(bignum.o)
 .group         0x0000000000000000        0xc /home/atmark/optee-build/imx-boot/imx-optee-os/out/export-ta_arm64/lib/libmbedtls.a(bignum.o)
 .group         0x0000000000000000        0xc /home/atmark/optee-build/imx-boot/imx-optee-os/out/export-ta_arm64/lib/libmbedtls.a(bignum.o)
 .group         0x0000000000000000        0xc /home/atmark/optee-build/imx-boot/imx-optee-os/out/export-ta_arm64/lib/libmbedtls.a(bignum.o)
 .debug_macro   0x0000000000000000      0x62f /home/atmark/optee-build/imx-boot/imx-optee-os/out/export-ta_arm64/lib/libmbedtls.a(bignum.o)
 .debug_macro   0x0000000000000000      0x124 /home/atmark/optee-build/imx-boot/imx-optee-os/out/export-ta_arm64/lib/libmbedtls.a(bignum.o)
 .debug_macro   0x0000000000000000       0x7c /home/atmark/optee-build/imx-boot/imx-optee-os/out/export-ta_arm64/lib/libmbedtls.a(bignum.o)
 .debug_macro   0x0000000000000000      0x16d /home/atmark/optee-build/imx-boot/imx-optee-os/out/export-ta_arm64/lib/libmbedtls.a(bignum.o)
 .debug_macro   0x0000000000000000      0x1a7 /home/atmark/optee-build/imx-boot/imx-optee-os/out/export-ta_arm64/lib/libmbedtls.a(bignum.o)
 .debug_macro   0x0000000000000000       0x79 /home/atmark/optee-build/imx-boot/imx-optee-os/out/export-ta_arm64/lib/libmbedtls.a(bignum.o)
 .debug_macro   0x0000000000000000       0x16 /home/atmark/optee-build/imx-boot/imx-optee-os/out/export-ta_arm64/lib/libmbedtls.a(bignum.o)
 .debug_macro   0x0000000000000000       0x58 /home/atmark/optee-build/imx-boot/imx-optee-os/out/export-ta_arm64/lib/libmbedtls.a(bignum.o)
 .debug_macro   0x0000000000000000       0xed /home/atmark/optee-build/imx-boot/imx-optee-os/out/export-ta_arm64/lib/libmbedtls.a(bignum.o)
 .debug_macro   0x0000000000000000       0xc4 /home/atmark/optee-build/imx-boot/imx-optee-os/out/export-ta_arm64/lib/libmbedtls.a(bignum.o)
 .debug_macro   0x0000000000000000       0x22 /home/atmark/optee-build/imx-boot/imx-optee-os/out/export-ta_arm64/lib/libmbedtls.a(bignum.o)
 .debug_macro   0x0000000000000000       0x2e /home/atmark/optee-build/imx-boot/imx-optee-os/out/export-ta_arm64/lib/libmbedtls.a(bignum.o)
 .debug_macro   0x0000000000000000       0x2d /home/atmark/optee-build/imx-boot/imx-optee-os/out/export-ta_arm64/lib/libmbedtls.a(bignum.o)
 .debug_macro   0x0000000000000000       0xe1 /home/atmark/optee-build/imx-boot/imx-optee-os/out/export-ta_arm64/lib/libmbedtls.a(bignum.o)
 .group         0x0000000000000000        0xc /home/atmark/optee-build/imx-boot/imx-optee-os/out/export-ta_arm64/lib/libmbedtls.a(platform_util.o)
 .group         0x0000000000000000        0xc /home/atmark/optee-build/imx-boot/imx-optee-os/out/export-ta_arm64/lib/libmbedtls.a(platform_util.o)
 .group         0x0000000000000000        0xc /home/atmark/optee-build/imx-boot/imx-optee-os/out/export-ta_arm64/lib/libmbedtls.a(platform_util.o)
 .group         0x0000000000000000        0xc /home/atmark/optee-build/imx-boot/imx-optee-os/out/export-ta_arm64/lib/libmbedtls.a(platform_util.o)
 .group         0x0000000000000000        0xc /home/atmark/optee-build/imx-boot/imx-optee-os/out/export-ta_arm64/lib/libmbedtls.a(platform_util.o)
 .group         0x0000000000000000        0xc /home/atmark/optee-build/imx-boot/imx-optee-os/out/export-ta_arm64/lib/libmbedtls.a(platform_util.o)
 .group         0x0000000000000000        0xc /home/atmark/optee-build/imx-boot/imx-optee-os/out/export-ta_arm64/lib/libmbedtls.a(platform_util.o)
 .group         0x0000000000000000        0xc /home/atmark/optee-build/imx-boot/imx-optee-os/out/export-ta_arm64/lib/libmbedtls.a(platform_util.o)
 .group         0x0000000000000000        0xc /home/atmark/optee-build/imx-boot/imx-optee-os/out/export-ta_arm64/lib/libmbedtls.a(platform_util.o)
 .group         0x0000000000000000        0xc /home/atmark/optee-build/imx-boot/imx-optee-os/out/export-ta_arm64/lib/libmbedtls.a(platform_util.o)
 .group         0x0000000000000000        0xc /home/atmark/optee-build/imx-boot/imx-optee-os/out/export-ta_arm64/lib/libmbedtls.a(platform_util.o)
 .group         0x0000000000000000        0xc /home/atmark/optee-build/imx-boot/imx-optee-os/out/export-ta_arm64/lib/libmbedtls.a(platform_util.o)
 .group         0x0000000000000000        0xc /home/atmark/optee-build/imx-boot/imx-optee-os/out/export-ta_arm64/lib/libmbedtls.a(platform_util.o)
 .group         0x0000000000000000        0xc /home/atmark/optee-build/imx-boot/imx-optee-os/out/export-ta_arm64/lib/libmbedtls.a(platform_util.o)
 .group         0x0000000000000000        0xc /home/atmark/optee-build/imx-boot/imx-optee-os/out/export-ta_arm64/lib/libmbedtls.a(platform_util.o)
 .group         0x0000000000000000        0xc /home/atmark/optee-build/imx-boot/imx-optee-os/out/export-ta_arm64/lib/libmbedtls.a(platform_util.o)
 .group         0x0000000000000000        0xc /home/atmark/optee-build/imx-boot/imx-optee-os/out/export-ta_arm64/lib/libmbedtls.a(platform_util.o)
 .debug_macro   0x0000000000000000      0x62f /home/atmark/optee-build/imx-boot/imx-optee-os/out/export-ta_arm64/lib/libmbedtls.a(platform_util.o)
 .debug_macro   0x0000000000000000      0x124 /home/atmark/optee-build/imx-boot/imx-optee-os/out/export-ta_arm64/lib/libmbedtls.a(platform_util.o)
 .debug_macro   0x0000000000000000       0x7c /home/atmark/optee-build/imx-boot/imx-optee-os/out/export-ta_arm64/lib/libmbedtls.a(platform_util.o)
 .debug_macro   0x0000000000000000      0x16d /home/atmark/optee-build/imx-boot/imx-optee-os/out/export-ta_arm64/lib/libmbedtls.a(platform_util.o)
 .debug_macro   0x0000000000000000       0x1e /home/atmark/optee-build/imx-boot/imx-optee-os/out/export-ta_arm64/lib/libmbedtls.a(platform_util.o)
 .debug_macro   0x0000000000000000       0x58 /home/atmark/optee-build/imx-boot/imx-optee-os/out/export-ta_arm64/lib/libmbedtls.a(platform_util.o)
 .debug_macro   0x0000000000000000       0xed /home/atmark/optee-build/imx-boot/imx-optee-os/out/export-ta_arm64/lib/libmbedtls.a(platform_util.o)
 .debug_macro   0x0000000000000000      0x1a7 /home/atmark/optee-build/imx-boot/imx-optee-os/out/export-ta_arm64/lib/libmbedtls.a(platform_util.o)
 .debug_macro   0x0000000000000000       0xc4 /home/atmark/optee-build/imx-boot/imx-optee-os/out/export-ta_arm64/lib/libmbedtls.a(platform_util.o)
 .debug_macro   0x0000000000000000       0x22 /home/atmark/optee-build/imx-boot/imx-optee-os/out/export-ta_arm64/lib/libmbedtls.a(platform_util.o)
 .debug_macro   0x0000000000000000       0x2e /home/atmark/optee-build/imx-boot/imx-optee-os/out/export-ta_arm64/lib/libmbedtls.a(platform_util.o)
 .debug_macro   0x0000000000000000       0x2d /home/atmark/optee-build/imx-boot/imx-optee-os/out/export-ta_arm64/lib/libmbedtls.a(platform_util.o)
 .debug_macro   0x0000000000000000       0x16 /home/atmark/optee-build/imx-boot/imx-optee-os/out/export-ta_arm64/lib/libmbedtls.a(platform_util.o)
 .group         0x0000000000000000        0xc /home/atmark/optee-build/imx-boot/imx-optee-os/out/export-ta_arm64/lib/libutils.a(snprintf.o)
 .group         0x0000000000000000        0xc /home/atmark/optee-build/imx-boot/imx-optee-os/out/export-ta_arm64/lib/libutils.a(snprintf.o)
 .group         0x0000000000000000        0xc /home/atmark/optee-build/imx-boot/imx-optee-os/out/export-ta_arm64/lib/libutils.a(snprintf.o)
 .group         0x0000000000000000        0xc /home/atmark/optee-build/imx-boot/imx-optee-os/out/export-ta_arm64/lib/libutils.a(snprintf.o)
 .group         0x0000000000000000        0xc /home/atmark/optee-build/imx-boot/imx-optee-os/out/export-ta_arm64/lib/libutils.a(snprintf.o)
 .debug_macro   0x0000000000000000      0x62f /home/atmark/optee-build/imx-boot/imx-optee-os/out/export-ta_arm64/lib/libutils.a(snprintf.o)
 .debug_macro   0x0000000000000000      0x16d /home/atmark/optee-build/imx-boot/imx-optee-os/out/export-ta_arm64/lib/libutils.a(snprintf.o)
 .debug_macro   0x0000000000000000       0x58 /home/atmark/optee-build/imx-boot/imx-optee-os/out/export-ta_arm64/lib/libutils.a(snprintf.o)
 .debug_macro   0x0000000000000000       0x22 /home/atmark/optee-build/imx-boot/imx-optee-os/out/export-ta_arm64/lib/libutils.a(snprintf.o)
 .group         0x0000000000000000        0xc /home/atmark/optee-build/imx-boot/imx-optee-os/out/export-ta_arm64/lib/libutils.a(memmove.o)
 .group         0x0000000000000000        0xc /home/atmark/optee-build/imx-boot/imx-optee-os/out/export-ta_arm64/lib/libutils.a(memmove.o)
 .group         0x0000000000000000        0xc /home/atmark/optee-build/imx-boot/imx-optee-os/out/export-ta_arm64/lib/libutils.a(memmove.o)
 .group         0x0000000000000000        0xc /home/atmark/optee-build/imx-boot/imx-optee-os/out/export-ta_arm64/lib/libutils.a(memmove.o)
 .group         0x0000000000000000        0xc /home/atmark/optee-build/imx-boot/imx-optee-os/out/export-ta_arm64/lib/libutils.a(memmove.o)
 .group         0x0000000000000000        0xc /home/atmark/optee-build/imx-boot/imx-optee-os/out/export-ta_arm64/lib/libutils.a(memmove.o)
 .debug_macro   0x0000000000000000      0x62f /home/atmark/optee-build/imx-boot/imx-optee-os/out/export-ta_arm64/lib/libutils.a(memmove.o)
 .debug_macro   0x0000000000000000      0x16d /home/atmark/optee-build/imx-boot/imx-optee-os/out/export-ta_arm64/lib/libutils.a(memmove.o)
 .debug_macro   0x0000000000000000       0x16 /home/atmark/optee-build/imx-boot/imx-optee-os/out/export-ta_arm64/lib/libutils.a(memmove.o)
 .debug_macro   0x0000000000000000       0x7c /home/atmark/optee-build/imx-boot/imx-optee-os/out/export-ta_arm64/lib/libutils.a(memmove.o)
 .debug_macro   0x0000000000000000       0x7c /home/atmark/optee-build/imx-boot/imx-optee-os/out/export-ta_arm64/lib/libutils.a(memmove.o)
 .group         0x0000000000000000        0xc /home/atmark/optee-build/imx-boot/imx-optee-os/out/export-ta_arm64/lib/libutils.a(mempool.o)
 .group         0x0000000000000000        0xc /home/atmark/optee-build/imx-boot/imx-optee-os/out/export-ta_arm64/lib/libutils.a(mempool.o)
 .group         0x0000000000000000        0xc /home/atmark/optee-build/imx-boot/imx-optee-os/out/export-ta_arm64/lib/libutils.a(mempool.o)
 .group         0x0000000000000000        0xc /home/atmark/optee-build/imx-boot/imx-optee-os/out/export-ta_arm64/lib/libutils.a(mempool.o)
 .group         0x0000000000000000        0xc /home/atmark/optee-build/imx-boot/imx-optee-os/out/export-ta_arm64/lib/libutils.a(mempool.o)
 .group         0x0000000000000000        0xc /home/atmark/optee-build/imx-boot/imx-optee-os/out/export-ta_arm64/lib/libutils.a(mempool.o)
 .group         0x0000000000000000        0xc /home/atmark/optee-build/imx-boot/imx-optee-os/out/export-ta_arm64/lib/libutils.a(mempool.o)
 .group         0x0000000000000000        0xc /home/atmark/optee-build/imx-boot/imx-optee-os/out/export-ta_arm64/lib/libutils.a(mempool.o)
 .group         0x0000000000000000        0xc /home/atmark/optee-build/imx-boot/imx-optee-os/out/export-ta_arm64/lib/libutils.a(mempool.o)
 .group         0x0000000000000000        0xc /home/atmark/optee-build/imx-boot/imx-optee-os/out/export-ta_arm64/lib/libutils.a(mempool.o)
 .group         0x0000000000000000        0xc /home/atmark/optee-build/imx-boot/imx-optee-os/out/export-ta_arm64/lib/libutils.a(mempool.o)
 .group         0x0000000000000000        0xc /home/atmark/optee-build/imx-boot/imx-optee-os/out/export-ta_arm64/lib/libutils.a(mempool.o)
 .group         0x0000000000000000        0xc /home/atmark/optee-build/imx-boot/imx-optee-os/out/export-ta_arm64/lib/libutils.a(mempool.o)
 .group         0x0000000000000000        0xc /home/atmark/optee-build/imx-boot/imx-optee-os/out/export-ta_arm64/lib/libutils.a(mempool.o)
 .group         0x0000000000000000        0xc /home/atmark/optee-build/imx-boot/imx-optee-os/out/export-ta_arm64/lib/libutils.a(mempool.o)
 .group         0x0000000000000000        0xc /home/atmark/optee-build/imx-boot/imx-optee-os/out/export-ta_arm64/lib/libutils.a(mempool.o)
 .group         0x0000000000000000        0xc /home/atmark/optee-build/imx-boot/imx-optee-os/out/export-ta_arm64/lib/libutils.a(mempool.o)
 .debug_macro   0x0000000000000000      0x62f /home/atmark/optee-build/imx-boot/imx-optee-os/out/export-ta_arm64/lib/libutils.a(mempool.o)
 .debug_macro   0x0000000000000000       0xed /home/atmark/optee-build/imx-boot/imx-optee-os/out/export-ta_arm64/lib/libutils.a(mempool.o)
 .debug_macro   0x0000000000000000       0x58 /home/atmark/optee-build/imx-boot/imx-optee-os/out/export-ta_arm64/lib/libutils.a(mempool.o)
 .debug_macro   0x0000000000000000       0x22 /home/atmark/optee-build/imx-boot/imx-optee-os/out/export-ta_arm64/lib/libutils.a(mempool.o)
 .debug_macro   0x0000000000000000      0x16d /home/atmark/optee-build/imx-boot/imx-optee-os/out/export-ta_arm64/lib/libutils.a(mempool.o)
 .debug_macro   0x0000000000000000       0x34 /home/atmark/optee-build/imx-boot/imx-optee-os/out/export-ta_arm64/lib/libutils.a(mempool.o)
 .debug_macro   0x0000000000000000       0x78 /home/atmark/optee-build/imx-boot/imx-optee-os/out/export-ta_arm64/lib/libutils.a(mempool.o)
 .debug_macro   0x0000000000000000       0x10 /home/atmark/optee-build/imx-boot/imx-optee-os/out/export-ta_arm64/lib/libutils.a(mempool.o)
 .debug_macro   0x0000000000000000       0x7c /home/atmark/optee-build/imx-boot/imx-optee-os/out/export-ta_arm64/lib/libutils.a(mempool.o)
 .debug_macro   0x0000000000000000      0x1a7 /home/atmark/optee-build/imx-boot/imx-optee-os/out/export-ta_arm64/lib/libutils.a(mempool.o)
 .debug_macro   0x0000000000000000       0xc4 /home/atmark/optee-build/imx-boot/imx-optee-os/out/export-ta_arm64/lib/libutils.a(mempool.o)
 .debug_macro   0x0000000000000000       0x2e /home/atmark/optee-build/imx-boot/imx-optee-os/out/export-ta_arm64/lib/libutils.a(mempool.o)
 .debug_macro   0x0000000000000000       0x2d /home/atmark/optee-build/imx-boot/imx-optee-os/out/export-ta_arm64/lib/libutils.a(mempool.o)
 .debug_macro   0x0000000000000000       0x10 /home/atmark/optee-build/imx-boot/imx-optee-os/out/export-ta_arm64/lib/libutils.a(mempool.o)
 .debug_macro   0x0000000000000000       0x16 /home/atmark/optee-build/imx-boot/imx-optee-os/out/export-ta_arm64/lib/libutils.a(mempool.o)
 .debug_macro   0x0000000000000000       0xe1 /home/atmark/optee-build/imx-boot/imx-optee-os/out/export-ta_arm64/lib/libutils.a(mempool.o)
 .group         0x0000000000000000        0xc /home/atmark/optee-build/imx-boot/imx-optee-os/out/export-ta_arm64/lib/libutils.a(consttime_memcmp.o)
 .group         0x0000000000000000        0xc /home/atmark/optee-build/imx-boot/imx-optee-os/out/export-ta_arm64/lib/libutils.a(consttime_memcmp.o)
 .group         0x0000000000000000        0xc /home/atmark/optee-build/imx-boot/imx-optee-os/out/export-ta_arm64/lib/libutils.a(consttime_memcmp.o)
 .group         0x0000000000000000        0xc /home/atmark/optee-build/imx-boot/imx-optee-os/out/export-ta_arm64/lib/libutils.a(consttime_memcmp.o)
 .group         0x0000000000000000        0xc /home/atmark/optee-build/imx-boot/imx-optee-os/out/export-ta_arm64/lib/libutils.a(consttime_memcmp.o)
 .debug_macro   0x0000000000000000      0x62f /home/atmark/optee-build/imx-boot/imx-optee-os/out/export-ta_arm64/lib/libutils.a(consttime_memcmp.o)
 .debug_macro   0x0000000000000000       0x7c /home/atmark/optee-build/imx-boot/imx-optee-os/out/export-ta_arm64/lib/libutils.a(consttime_memcmp.o)
 .debug_macro   0x0000000000000000      0x16d /home/atmark/optee-build/imx-boot/imx-optee-os/out/export-ta_arm64/lib/libutils.a(consttime_memcmp.o)
 .debug_macro   0x0000000000000000       0x16 /home/atmark/optee-build/imx-boot/imx-optee-os/out/export-ta_arm64/lib/libutils.a(consttime_memcmp.o)

メモリ設定

名前           原点             長さ             属性
*default*        0x0000000000000000 0xffffffffffffffff

リンカスクリプトおよびメモリマップ


.ta_head        0x0000000000000000       0x20
 *(SORT_BY_ALIGNMENT(.ta_head))
 .ta_head       0x0000000000000000       0x20 ./user_ta_header.o
                0x0000000000000000                ta_head

.text           0x0000000000000020     0xfe6c
                0x0000000000000020                __text_start = .
 *(SORT_BY_ALIGNMENT(.text) SORT_BY_ALIGNMENT(.text.*))
 .text          0x0000000000000020      0x674 ./server_ta.o
                0x0000000000000020                TA_CreateEntryPoint
                0x0000000000000054                TA_DestroyEntryPoint
                0x0000000000000080                TA_OpenSessionEntryPoint
                0x00000000000000f0                TA_CloseSessionEntryPoint
                0x0000000000000114                TA_InvokeCommandEntryPoint
 *fill*         0x0000000000000694        0xc 
 .text          0x00000000000006a0       0x1c ./user_ta_header.o
                0x00000000000006a0                __ta_entry
                0x00000000000006b4                tahead_get_trace_level
 *fill*         0x00000000000006bc        0x4 
 .text          0x00000000000006c0      0xf08 /home/atmark/optee-build/imx-boot/imx-optee-os/out/export-ta_arm64/lib/libutils.a(bget_malloc.o)
                0x00000000000006c0                bget
                0x00000000000009a0                bgetz
                0x0000000000000a30                brel
                0x0000000000000cd0                bgetr
                0x0000000000000db0                bpool
                0x0000000000000e94                bget_main_test
                0x00000000000011c4                malloc
                0x00000000000011f0                calloc
                0x0000000000001230                realloc
                0x0000000000001260                memalign
                0x00000000000012a0                free
                0x00000000000012c0                free_wipe
                0x00000000000012e0                malloc_add_pool
                0x00000000000013f0                malloc_buffer_is_within_alloced
                0x0000000000001554                malloc_buffer_overlaps_heap
 *fill*         0x00000000000015c8        0x8 
 .text          0x00000000000015d0       0x50 /home/atmark/optee-build/imx-boot/imx-optee-os/out/export-ta_arm64/lib/libutils.a(strndup.o)
                0x00000000000015d0                strndup
 .text          0x0000000000001620       0xec /home/atmark/optee-build/imx-boot/imx-optee-os/out/export-ta_arm64/lib/libutils.a(memcpy.o)
                0x0000000000001620                memcpy
 *fill*         0x000000000000170c        0x4 
 .text          0x0000000000001710       0xf0 /home/atmark/optee-build/imx-boot/imx-optee-os/out/export-ta_arm64/lib/libutils.a(memset.o)
                0x0000000000001710                memset
 .text          0x0000000000001800       0x3c /home/atmark/optee-build/imx-boot/imx-optee-os/out/export-ta_arm64/lib/libutils.a(strnlen.o)
                0x0000000000001800                strnlen
 *fill*         0x000000000000183c        0x4 
 .text          0x0000000000001840      0x364 /home/atmark/optee-build/imx-boot/imx-optee-os/out/export-ta_arm64/lib/libutils.a(trace.o)
                0x0000000000001840                trace_set_level
                0x0000000000001860                trace_get_level
                0x0000000000001870                trace_vprintf
                0x0000000000001b30                trace_printf
                0x0000000000001ba0                dhex_dump
 *fill*         0x0000000000001ba4        0xc 
 .text          0x0000000000001bb0     0x1054 /home/atmark/optee-build/imx-boot/imx-optee-os/out/export-ta_arm64/lib/libutils.a(snprintk.o)
                0x0000000000001bb0                __vsnprintf
                0x0000000000001c40                vsnprintk
                0x0000000000001c80                snprintk
                0x0000000000002bc0                __vsprintf
 *fill*         0x0000000000002c04        0xc 
 .text          0x0000000000002c10       0xd8 /home/atmark/optee-build/imx-boot/imx-optee-os/out/export-ta_arm64/lib/libutils.a(memchr.o)
                0x0000000000002c10                memchr
 *fill*         0x0000000000002ce8        0x8 
 .text          0x0000000000002cf0       0x7c /home/atmark/optee-build/imx-boot/imx-optee-os/out/export-ta_arm64/lib/libutils.a(strlen.o)
                0x0000000000002cf0                strlen
 *fill*         0x0000000000002d6c        0x4 
 .text          0x0000000000002d70       0x58 /home/atmark/optee-build/imx-boot/imx-optee-os/out/export-ta_arm64/lib/libutee.a(assert.o)
                0x0000000000002d70                _assert_log
                0x0000000000002db4                _assert_break
 *fill*         0x0000000000002dc8        0x8 
 .text          0x0000000000002dd0      0x190 /home/atmark/optee-build/imx-boot/imx-optee-os/out/export-ta_arm64/lib/libutee.a(trace_ext.o)
                0x0000000000002dd0                trace_ext_puts
                0x0000000000002e00                trace_ext_get_thread_id
                0x0000000000002e10                printf
                0x0000000000002ee4                puts
                0x0000000000002f24                putchar
 .text          0x0000000000002f60     0x342c /home/atmark/optee-build/imx-boot/imx-optee-os/out/export-ta_arm64/lib/libutee.a(tee_api_operations.o)
                0x00000000000031f0                TEE_FreeOperation
                0x0000000000003250                TEE_AllocateOperation
                0x0000000000004190                TEE_GetOperationInfo
                0x00000000000041f0                TEE_GetOperationInfoMultiple
                0x0000000000004390                TEE_ResetOperation
                0x0000000000004430                TEE_SetOperationKey
                0x0000000000004550                TEE_SetOperationKey2
                0x0000000000004750                TEE_CopyOperation
                0x00000000000048a0                TEE_DigestUpdate
                0x0000000000004910                TEE_DigestDoFinal
                0x0000000000004a30                TEE_CipherInit
                0x0000000000004b20                TEE_CipherUpdate
                0x0000000000004cc0                TEE_CipherDoFinal
                0x0000000000004ee0                TEE_MACInit
                0x0000000000004fd0                TEE_MACUpdate
                0x0000000000005080                TEE_MACComputeFinal
                0x0000000000005180                TEE_MACCompareFinal
                0x0000000000005264                TEE_AEInit
                0x0000000000005350                TEE_AEUpdateAAD
                0x0000000000005404                TEE_AEUpdate
                0x00000000000055a0                TEE_AEEncryptFinal
                0x00000000000057a4                TEE_AEDecryptFinal
                0x0000000000005990                TEE_AsymmetricEncrypt
                0x0000000000005b00                TEE_AsymmetricDecrypt
                0x0000000000005c70                TEE_AsymmetricSignDigest
                0x0000000000005dd0                TEE_AsymmetricVerifyDigest
                0x0000000000005f10                TEE_DeriveKey
                0x00000000000060b0                TEE_GenerateRandom
                0x00000000000060d4                rand
                0x0000000000006100                TEE_IsAlgorithmSupported
 *fill*         0x000000000000638c        0x4 
 .text          0x0000000000006390      0x204 /home/atmark/optee-build/imx-boot/imx-optee-os/out/export-ta_arm64/lib/libutee.a(tee_api_panic.o)
                0x0000000000006390                TEE_Panic
                0x00000000000063a0                __utee_check_outbuf_annotation
                0x0000000000006410                __utee_check_instring_annotation
                0x0000000000006454                __utee_check_outstring_annotation
                0x00000000000064c0                __utee_check_out_annotation
                0x0000000000006504                __utee_check_attr_in_annotation
                0x0000000000006550                __utee_check_inout_annotation
 *fill*         0x0000000000006594        0xc 
 .text          0x00000000000065a0      0x5bc /home/atmark/optee-build/imx-boot/imx-optee-os/out/export-ta_arm64/lib/libutee.a(tee_tcpudp_socket.o)
 *fill*         0x0000000000006b5c        0x4 
 .text          0x0000000000006b60      0x710 /home/atmark/optee-build/imx-boot/imx-optee-os/out/export-ta_arm64/lib/libutee.a(user_ta_entry.o)
                0x0000000000006dc4                __utee_call_elf_init_fn
                0x0000000000006f00                __utee_call_elf_fini_fn
                0x0000000000006fb4                __utee_entry
 .text          0x0000000000007270      0x8a8 /home/atmark/optee-build/imx-boot/imx-optee-os/out/export-ta_arm64/lib/libutee.a(tee_api.o)
                0x0000000000007320                TEE_CloseTASession
                0x0000000000007350                TEE_GetCancellationFlag
                0x0000000000007380                TEE_UnmaskCancellation
                0x00000000000073c0                TEE_MaskCancellation
                0x0000000000007400                TEE_CheckMemoryAccessRights
                0x0000000000007614                TEE_OpenTASession
                0x0000000000007734                TEE_InvokeTACommand
                0x00000000000078c0                TEE_SetInstanceData
                0x00000000000078d0                TEE_GetInstanceData
                0x00000000000078e0                TEE_MemMove
                0x00000000000078f0                TEE_MemCompare
                0x0000000000007900                TEE_MemFill
                0x0000000000007910                TEE_GetSystemTime
                0x0000000000007940                TEE_Wait
                0x0000000000007990                TEE_GetTAPersistentTime
                0x0000000000007a00                TEE_SetTAPersistentTime
                0x0000000000007a50                TEE_GetREETime
                0x0000000000007a80                TEE_Malloc
                0x0000000000007ae0                TEE_Realloc
                0x0000000000007af0                TEE_Free
                0x0000000000007af4                TEE_CacheClean
                0x0000000000007b00                TEE_CacheFlush
                0x0000000000007b10                TEE_CacheInvalidate
 *fill*         0x0000000000007b18        0x8 
 .text          0x0000000000007b20     0x1d54 /home/atmark/optee-build/imx-boot/imx-optee-os/out/export-ta_arm64/lib/libutee.a(tee_api_arith_mpi.o)
                0x00000000000084e0                _TEE_MathAPI_Init
                0x0000000000008530                TEE_BigIntInit
                0x0000000000008594                TEE_BigIntConvertFromOctetString
                0x0000000000008670                TEE_BigIntConvertToOctetString
                0x0000000000008724                TEE_BigIntConvertFromS32
                0x00000000000087b4                TEE_BigIntConvertToS32
                0x0000000000008854                TEE_BigIntCmp
                0x00000000000088c0                TEE_BigIntCmpS32
                0x0000000000008ac0                TEE_BigIntShiftRight
                0x0000000000008c70                TEE_BigIntGetBit
                0x0000000000008cc0                TEE_BigIntGetBitCount
                0x0000000000008d00                TEE_BigIntAdd
                0x0000000000008d10                TEE_BigIntSub
                0x0000000000008d20                TEE_BigIntNeg
                0x0000000000008de0                TEE_BigIntMul
                0x0000000000008ec0                TEE_BigIntSquare
                0x0000000000008ed0                TEE_BigIntDiv
                0x0000000000009070                TEE_BigIntMod
                0x00000000000090e0                TEE_BigIntAddMod
                0x00000000000090f0                TEE_BigIntSubMod
                0x0000000000009100                TEE_BigIntMulMod
                0x0000000000009110                TEE_BigIntSquareMod
                0x0000000000009120                TEE_BigIntInvMod
                0x0000000000009260                TEE_BigIntRelativePrime
                0x0000000000009370                TEE_BigIntComputeExtendedGcd
                0x0000000000009610                TEE_BigIntIsProbablePrime
                0x0000000000009664                TEE_BigIntInitFMM
                0x0000000000009670                TEE_BigIntInitFMMContext
                0x0000000000009674                TEE_BigIntFMMSizeInU32
                0x0000000000009684                TEE_BigIntFMMContextSizeInU32
                0x0000000000009690                TEE_BigIntConvertToFMM
                0x0000000000009694                TEE_BigIntConvertFromFMM
                0x0000000000009740                TEE_BigIntComputeFMM
 *fill*         0x0000000000009874        0xc 
 .text          0x0000000000009880     0x10e8 /home/atmark/optee-build/imx-boot/imx-optee-os/out/export-ta_arm64/lib/libutee.a(tee_api_objects.o)
                0x0000000000009880                __utee_from_attr
                0x00000000000098d4                TEE_GetObjectInfo
                0x0000000000009920                TEE_GetObjectInfo1
                0x0000000000009970                TEE_RestrictObjectUsage1
                0x00000000000099c4                TEE_RestrictObjectUsage
                0x0000000000009a20                TEE_GetObjectBufferAttribute
                0x0000000000009af0                TEE_GetObjectValueAttribute
                0x0000000000009c24                TEE_CloseObject
                0x0000000000009c50                TEE_AllocateTransientObject
                0x0000000000009cf4                TEE_FreeTransientObject
                0x0000000000009d70                TEE_ResetTransientObject
                0x0000000000009df0                TEE_PopulateTransientObject
                0x0000000000009ef0                TEE_InitRefAttribute
                0x0000000000009f60                TEE_InitValueAttribute
                0x0000000000009fc4                TEE_CopyObjectAttributes1
                0x000000000000a0b0                TEE_CopyObjectAttributes
                0x000000000000a110                TEE_GenerateKey
                0x000000000000a1d0                TEE_OpenPersistentObject
                0x000000000000a2c4                TEE_CreatePersistentObject
                0x000000000000a3f0                TEE_CloseAndDeletePersistentObject1
                0x000000000000a444                TEE_CloseAndDeletePersistentObject
                0x000000000000a470                TEE_RenamePersistentObject
                0x000000000000a4d0                TEE_AllocatePersistentObjectEnumerator
                0x000000000000a540                TEE_FreePersistentObjectEnumerator
                0x000000000000a570                TEE_ResetPersistentObjectEnumerator
                0x000000000000a5a0                TEE_StartPersistentObjectEnumerator
                0x000000000000a600                TEE_GetNextPersistentObject
                0x000000000000a6e0                TEE_ReadObjectData
                0x000000000000a794                TEE_WriteObjectData
                0x000000000000a800                TEE_TruncateObjectData
                0x000000000000a860                TEE_SeekObjectData
 *fill*         0x000000000000a968        0x8 
 .text          0x000000000000a970      0x3c8 /home/atmark/optee-build/imx-boot/imx-optee-os/out/export-ta_arm64/lib/libutee.a(tee_socket_pta.o)
                0x000000000000aa00                __tee_socket_pta_open
                0x000000000000aab4                __tee_socket_pta_close
                0x000000000000aaf0                __tee_socket_pta_send
                0x000000000000ab50                __tee_socket_pta_recv
                0x000000000000abb0                __tee_socket_pta_ioctl
                0x000000000000ac10                __tee_socket_pta_listen
                0x000000000000acc4                __tee_socket_pta_accept
 *fill*         0x000000000000ad38        0x8 
 .text          0x000000000000ad40      0x278 /home/atmark/optee-build/imx-boot/imx-optee-os/out/export-ta_arm64/lib/libutee.a(tee_system_pta.o)
                0x000000000000add0                tee_map_zi
                0x000000000000ae40                tee_unmap
                0x000000000000aee0                tee_invoke_supp_plugin
 *fill*         0x000000000000afb8        0x8 
 .text          0x000000000000afc0      0x38c /home/atmark/optee-build/imx-boot/imx-optee-os/out/export-ta_arm64/lib/libutee.a(tcb.o)
                0x000000000000afc0                __utee_tcb_init
                0x000000000000b234                __tls_get_addr
                0x000000000000b250                dl_iterate_phdr
 *fill*         0x000000000000b34c        0x4 
 .text          0x000000000000b350     0x4414 /home/atmark/optee-build/imx-boot/imx-optee-os/out/export-ta_arm64/lib/libmbedtls.a(bignum.o)
                0x000000000000b854                mbedtls_mpi_init
                0x000000000000b864                mbedtls_mpi_init_mempool
                0x000000000000b890                mbedtls_mpi_free
                0x000000000000b910                mbedtls_mpi_grow
                0x000000000000ba10                mbedtls_mpi_shrink
                0x000000000000bb44                mbedtls_mpi_copy
                0x000000000000bc40                mbedtls_mpi_swap
                0x000000000000bca0                mbedtls_mpi_safe_cond_assign
                0x000000000000bd64                mbedtls_mpi_safe_cond_swap
                0x000000000000be54                mbedtls_mpi_lset
                0x000000000000bec0                mbedtls_mpi_get_bit
                0x000000000000bef0                mbedtls_mpi_set_bit
                0x000000000000bf94                mbedtls_mpi_lsb
                0x000000000000bfe4                mbedtls_mpi_bitlen
                0x000000000000c060                mbedtls_mpi_size
                0x000000000000c080                mbedtls_mpi_read_binary_le
                0x000000000000c130                mbedtls_mpi_read_binary
                0x000000000000c1f0                mbedtls_mpi_write_binary_le
                0x000000000000c2d0                mbedtls_mpi_write_binary
                0x000000000000c3c4                mbedtls_mpi_shift_l
                0x000000000000c4d0                mbedtls_mpi_shift_r
                0x000000000000c5d4                mbedtls_mpi_cmp_abs
                0x000000000000c694                mbedtls_mpi_cmp_mpi
                0x000000000000c784                mbedtls_mpi_lt_mpi_ct
                0x000000000000c860                mbedtls_mpi_cmp_int
                0x000000000000c8a0                mbedtls_mpi_add_abs
                0x000000000000c9e4                mbedtls_mpi_sub_abs
                0x000000000000cac0                mbedtls_mpi_add_mpi
                0x000000000000cb70                mbedtls_mpi_sub_mpi
                0x000000000000cc20                mbedtls_mpi_add_int
                0x000000000000cc60                mbedtls_mpi_sub_int
                0x000000000000cca0                mbedtls_mpi_mul_mpi
                0x000000000000ce20                mbedtls_mpi_mul_int
                0x000000000000ce54                mbedtls_mpi_read_string
                0x000000000000d0a0                mbedtls_mpi_div_mpi
                0x000000000000d610                mbedtls_mpi_div_int
                0x000000000000d650                mbedtls_mpi_mod_mpi
                0x000000000000d724                mbedtls_mpi_mod_int
                0x000000000000d7e4                mbedtls_mpi_write_string
                0x000000000000db00                mbedtls_mpi_montg_init
                0x000000000000db40                mbedtls_mpi_montmul
                0x000000000000dcd0                mbedtls_mpi_montred
                0x000000000000dd10                mbedtls_mpi_exp_mod
                0x000000000000e4d0                mbedtls_mpi_gcd
                0x000000000000e690                mbedtls_mpi_fill_random
                0x000000000000e9f4                mbedtls_mpi_inv_mod
                0x000000000000ee30                mbedtls_mpi_is_prime_ext
                0x000000000000eef4                mbedtls_mpi_is_prime
                0x000000000000ef04                mbedtls_mpi_gen_prime
                0x000000000000f220                mbedtls_mpi_self_test
 *fill*         0x000000000000f764        0xc 
 .text          0x000000000000f770       0x20 /home/atmark/optee-build/imx-boot/imx-optee-os/out/export-ta_arm64/lib/libmbedtls.a(platform_util.o)
                0x000000000000f770                mbedtls_platform_zeroize
 .text          0x000000000000f790       0xb4 /home/atmark/optee-build/imx-boot/imx-optee-os/out/export-ta_arm64/lib/libutils.a(snprintf.o)
                0x000000000000f790                snprintf
                0x000000000000f804                vsnprintf
 *fill*         0x000000000000f844        0xc 
 .text          0x000000000000f850      0x118 /home/atmark/optee-build/imx-boot/imx-optee-os/out/export-ta_arm64/lib/libutils.a(memmove.o)
                0x000000000000f850                memmove
 *fill*         0x000000000000f968        0x8 
 .text          0x000000000000f970      0x1d0 /home/atmark/optee-build/imx-boot/imx-optee-os/out/export-ta_arm64/lib/libutils.a(mempool.o)
                0x000000000000f970                mempool_alloc_pool
                0x000000000000f9e0                mempool_alloc
                0x000000000000fab4                mempool_calloc
                0x000000000000fb00                mempool_free
 .text          0x000000000000fb40       0x80 /home/atmark/optee-build/imx-boot/imx-optee-os/out/export-ta_arm64/lib/libutils.a(consttime_memcmp.o)
                0x000000000000fb40                consttime_memcmp
 .text._utee_panic
                0x000000000000fbc0        0xc /home/atmark/optee-build/imx-boot/imx-optee-os/out/export-ta_arm64/lib/libutee.a(utee_syscalls_a64.o)
                0x000000000000fbc0                _utee_panic
 .text._utee_return
                0x000000000000fbcc        0xc /home/atmark/optee-build/imx-boot/imx-optee-os/out/export-ta_arm64/lib/libutee.a(utee_syscalls_a64.o)
                0x000000000000fbcc                _utee_return
 .text._utee_log
                0x000000000000fbd8        0xc /home/atmark/optee-build/imx-boot/imx-optee-os/out/export-ta_arm64/lib/libutee.a(utee_syscalls_a64.o)
                0x000000000000fbd8                _utee_log
 .text.__utee_panic
                0x000000000000fbe4        0xc /home/atmark/optee-build/imx-boot/imx-optee-os/out/export-ta_arm64/lib/libutee.a(utee_syscalls_a64.o)
                0x000000000000fbe4                __utee_panic
 .text._utee_get_property
                0x000000000000fbf0        0xc /home/atmark/optee-build/imx-boot/imx-optee-os/out/export-ta_arm64/lib/libutee.a(utee_syscalls_a64.o)
                0x000000000000fbf0                _utee_get_property
 .text._utee_get_property_name_to_index
                0x000000000000fbfc        0xc /home/atmark/optee-build/imx-boot/imx-optee-os/out/export-ta_arm64/lib/libutee.a(utee_syscalls_a64.o)
                0x000000000000fbfc                _utee_get_property_name_to_index
 .text._utee_open_ta_session
                0x000000000000fc08        0xc /home/atmark/optee-build/imx-boot/imx-optee-os/out/export-ta_arm64/lib/libutee.a(utee_syscalls_a64.o)
                0x000000000000fc08                _utee_open_ta_session
 .text._utee_close_ta_session
                0x000000000000fc14        0xc /home/atmark/optee-build/imx-boot/imx-optee-os/out/export-ta_arm64/lib/libutee.a(utee_syscalls_a64.o)
                0x000000000000fc14                _utee_close_ta_session
 .text._utee_invoke_ta_command
                0x000000000000fc20        0xc /home/atmark/optee-build/imx-boot/imx-optee-os/out/export-ta_arm64/lib/libutee.a(utee_syscalls_a64.o)
                0x000000000000fc20                _utee_invoke_ta_command
 .text._utee_get_cancellation_flag
                0x000000000000fc2c        0xc /home/atmark/optee-build/imx-boot/imx-optee-os/out/export-ta_arm64/lib/libutee.a(utee_syscalls_a64.o)
                0x000000000000fc2c                _utee_get_cancellation_flag
 .text._utee_check_access_rights
                0x000000000000fc38        0xc /home/atmark/optee-build/imx-boot/imx-optee-os/out/export-ta_arm64/lib/libutee.a(utee_syscalls_a64.o)
                0x000000000000fc38                _utee_check_access_rights
 .text._utee_unmask_cancellation
                0x000000000000fc44        0xc /home/atmark/optee-build/imx-boot/imx-optee-os/out/export-ta_arm64/lib/libutee.a(utee_syscalls_a64.o)
                0x000000000000fc44                _utee_unmask_cancellation
 .text._utee_mask_cancellation
                0x000000000000fc50        0xc /home/atmark/optee-build/imx-boot/imx-optee-os/out/export-ta_arm64/lib/libutee.a(utee_syscalls_a64.o)
                0x000000000000fc50                _utee_mask_cancellation
 .text._utee_wait
                0x000000000000fc5c        0xc /home/atmark/optee-build/imx-boot/imx-optee-os/out/export-ta_arm64/lib/libutee.a(utee_syscalls_a64.o)
                0x000000000000fc5c                _utee_wait
 .text._utee_get_time
                0x000000000000fc68        0xc /home/atmark/optee-build/imx-boot/imx-optee-os/out/export-ta_arm64/lib/libutee.a(utee_syscalls_a64.o)
                0x000000000000fc68                _utee_get_time
 .text._utee_set_ta_time
                0x000000000000fc74        0xc /home/atmark/optee-build/imx-boot/imx-optee-os/out/export-ta_arm64/lib/libutee.a(utee_syscalls_a64.o)
                0x000000000000fc74                _utee_set_ta_time
 .text._utee_cryp_state_alloc
                0x000000000000fc80        0xc /home/atmark/optee-build/imx-boot/imx-optee-os/out/export-ta_arm64/lib/libutee.a(utee_syscalls_a64.o)
                0x000000000000fc80                _utee_cryp_state_alloc
 .text._utee_cryp_state_copy
                0x000000000000fc8c        0xc /home/atmark/optee-build/imx-boot/imx-optee-os/out/export-ta_arm64/lib/libutee.a(utee_syscalls_a64.o)
                0x000000000000fc8c                _utee_cryp_state_copy
 .text._utee_cryp_state_free
                0x000000000000fc98        0xc /home/atmark/optee-build/imx-boot/imx-optee-os/out/export-ta_arm64/lib/libutee.a(utee_syscalls_a64.o)
                0x000000000000fc98                _utee_cryp_state_free
 .text._utee_hash_init
                0x000000000000fca4        0xc /home/atmark/optee-build/imx-boot/imx-optee-os/out/export-ta_arm64/lib/libutee.a(utee_syscalls_a64.o)
                0x000000000000fca4                _utee_hash_init
 .text._utee_hash_update
                0x000000000000fcb0        0xc /home/atmark/optee-build/imx-boot/imx-optee-os/out/export-ta_arm64/lib/libutee.a(utee_syscalls_a64.o)
                0x000000000000fcb0                _utee_hash_update
 .text._utee_hash_final
                0x000000000000fcbc        0xc /home/atmark/optee-build/imx-boot/imx-optee-os/out/export-ta_arm64/lib/libutee.a(utee_syscalls_a64.o)
                0x000000000000fcbc                _utee_hash_final
 .text._utee_cipher_init
                0x000000000000fcc8        0xc /home/atmark/optee-build/imx-boot/imx-optee-os/out/export-ta_arm64/lib/libutee.a(utee_syscalls_a64.o)
                0x000000000000fcc8                _utee_cipher_init
 .text._utee_cipher_update
                0x000000000000fcd4        0xc /home/atmark/optee-build/imx-boot/imx-optee-os/out/export-ta_arm64/lib/libutee.a(utee_syscalls_a64.o)
                0x000000000000fcd4                _utee_cipher_update
 .text._utee_cipher_final
                0x000000000000fce0        0xc /home/atmark/optee-build/imx-boot/imx-optee-os/out/export-ta_arm64/lib/libutee.a(utee_syscalls_a64.o)
                0x000000000000fce0                _utee_cipher_final
 .text._utee_cryp_obj_get_info
                0x000000000000fcec        0xc /home/atmark/optee-build/imx-boot/imx-optee-os/out/export-ta_arm64/lib/libutee.a(utee_syscalls_a64.o)
                0x000000000000fcec                _utee_cryp_obj_get_info
 .text._utee_cryp_obj_restrict_usage
                0x000000000000fcf8        0xc /home/atmark/optee-build/imx-boot/imx-optee-os/out/export-ta_arm64/lib/libutee.a(utee_syscalls_a64.o)
                0x000000000000fcf8                _utee_cryp_obj_restrict_usage
 .text._utee_cryp_obj_get_attr
                0x000000000000fd04        0xc /home/atmark/optee-build/imx-boot/imx-optee-os/out/export-ta_arm64/lib/libutee.a(utee_syscalls_a64.o)
                0x000000000000fd04                _utee_cryp_obj_get_attr
 .text._utee_cryp_obj_alloc
                0x000000000000fd10        0xc /home/atmark/optee-build/imx-boot/imx-optee-os/out/export-ta_arm64/lib/libutee.a(utee_syscalls_a64.o)
                0x000000000000fd10                _utee_cryp_obj_alloc
 .text._utee_cryp_obj_close
                0x000000000000fd1c        0xc /home/atmark/optee-build/imx-boot/imx-optee-os/out/export-ta_arm64/lib/libutee.a(utee_syscalls_a64.o)
                0x000000000000fd1c                _utee_cryp_obj_close
 .text._utee_cryp_obj_reset
                0x000000000000fd28        0xc /home/atmark/optee-build/imx-boot/imx-optee-os/out/export-ta_arm64/lib/libutee.a(utee_syscalls_a64.o)
                0x000000000000fd28                _utee_cryp_obj_reset
 .text._utee_cryp_obj_populate
                0x000000000000fd34        0xc /home/atmark/optee-build/imx-boot/imx-optee-os/out/export-ta_arm64/lib/libutee.a(utee_syscalls_a64.o)
                0x000000000000fd34                _utee_cryp_obj_populate
 .text._utee_cryp_obj_copy
                0x000000000000fd40        0xc /home/atmark/optee-build/imx-boot/imx-optee-os/out/export-ta_arm64/lib/libutee.a(utee_syscalls_a64.o)
                0x000000000000fd40                _utee_cryp_obj_copy
 .text._utee_cryp_derive_key
                0x000000000000fd4c        0xc /home/atmark/optee-build/imx-boot/imx-optee-os/out/export-ta_arm64/lib/libutee.a(utee_syscalls_a64.o)
                0x000000000000fd4c                _utee_cryp_derive_key
 .text._utee_cryp_random_number_generate
                0x000000000000fd58        0xc /home/atmark/optee-build/imx-boot/imx-optee-os/out/export-ta_arm64/lib/libutee.a(utee_syscalls_a64.o)
                0x000000000000fd58                _utee_cryp_random_number_generate
 .text._utee_authenc_init
                0x000000000000fd64        0xc /home/atmark/optee-build/imx-boot/imx-optee-os/out/export-ta_arm64/lib/libutee.a(utee_syscalls_a64.o)
                0x000000000000fd64                _utee_authenc_init
 .text._utee_authenc_update_aad
                0x000000000000fd70        0xc /home/atmark/optee-build/imx-boot/imx-optee-os/out/export-ta_arm64/lib/libutee.a(utee_syscalls_a64.o)
                0x000000000000fd70                _utee_authenc_update_aad
 .text._utee_authenc_update_payload
                0x000000000000fd7c        0xc /home/atmark/optee-build/imx-boot/imx-optee-os/out/export-ta_arm64/lib/libutee.a(utee_syscalls_a64.o)
                0x000000000000fd7c                _utee_authenc_update_payload
 .text._utee_authenc_enc_final
                0x000000000000fd88        0xc /home/atmark/optee-build/imx-boot/imx-optee-os/out/export-ta_arm64/lib/libutee.a(utee_syscalls_a64.o)
                0x000000000000fd88                _utee_authenc_enc_final
 .text._utee_authenc_dec_final
                0x000000000000fd94        0xc /home/atmark/optee-build/imx-boot/imx-optee-os/out/export-ta_arm64/lib/libutee.a(utee_syscalls_a64.o)
                0x000000000000fd94                _utee_authenc_dec_final
 .text._utee_asymm_operate
                0x000000000000fda0        0xc /home/atmark/optee-build/imx-boot/imx-optee-os/out/export-ta_arm64/lib/libutee.a(utee_syscalls_a64.o)
                0x000000000000fda0                _utee_asymm_operate
 .text._utee_asymm_verify
                0x000000000000fdac        0xc /home/atmark/optee-build/imx-boot/imx-optee-os/out/export-ta_arm64/lib/libutee.a(utee_syscalls_a64.o)
                0x000000000000fdac                _utee_asymm_verify
 .text._utee_storage_obj_open
                0x000000000000fdb8        0xc /home/atmark/optee-build/imx-boot/imx-optee-os/out/export-ta_arm64/lib/libutee.a(utee_syscalls_a64.o)
                0x000000000000fdb8                _utee_storage_obj_open
 .text._utee_storage_obj_create
                0x000000000000fdc4        0xc /home/atmark/optee-build/imx-boot/imx-optee-os/out/export-ta_arm64/lib/libutee.a(utee_syscalls_a64.o)
                0x000000000000fdc4                _utee_storage_obj_create
 .text._utee_storage_obj_del
                0x000000000000fdd0        0xc /home/atmark/optee-build/imx-boot/imx-optee-os/out/export-ta_arm64/lib/libutee.a(utee_syscalls_a64.o)
                0x000000000000fdd0                _utee_storage_obj_del
 .text._utee_storage_obj_rename
                0x000000000000fddc        0xc /home/atmark/optee-build/imx-boot/imx-optee-os/out/export-ta_arm64/lib/libutee.a(utee_syscalls_a64.o)
                0x000000000000fddc                _utee_storage_obj_rename
 .text._utee_storage_alloc_enum
                0x000000000000fde8        0xc /home/atmark/optee-build/imx-boot/imx-optee-os/out/export-ta_arm64/lib/libutee.a(utee_syscalls_a64.o)
                0x000000000000fde8                _utee_storage_alloc_enum
 .text._utee_storage_free_enum
                0x000000000000fdf4        0xc /home/atmark/optee-build/imx-boot/imx-optee-os/out/export-ta_arm64/lib/libutee.a(utee_syscalls_a64.o)
                0x000000000000fdf4                _utee_storage_free_enum
 .text._utee_storage_reset_enum
                0x000000000000fe00        0xc /home/atmark/optee-build/imx-boot/imx-optee-os/out/export-ta_arm64/lib/libutee.a(utee_syscalls_a64.o)
                0x000000000000fe00                _utee_storage_reset_enum
 .text._utee_storage_start_enum
                0x000000000000fe0c        0xc /home/atmark/optee-build/imx-boot/imx-optee-os/out/export-ta_arm64/lib/libutee.a(utee_syscalls_a64.o)
                0x000000000000fe0c                _utee_storage_start_enum
 .text._utee_storage_next_enum
                0x000000000000fe18        0xc /home/atmark/optee-build/imx-boot/imx-optee-os/out/export-ta_arm64/lib/libutee.a(utee_syscalls_a64.o)
                0x000000000000fe18                _utee_storage_next_enum
 .text._utee_storage_obj_read
                0x000000000000fe24        0xc /home/atmark/optee-build/imx-boot/imx-optee-os/out/export-ta_arm64/lib/libutee.a(utee_syscalls_a64.o)
                0x000000000000fe24                _utee_storage_obj_read
 .text._utee_storage_obj_write
                0x000000000000fe30        0xc /home/atmark/optee-build/imx-boot/imx-optee-os/out/export-ta_arm64/lib/libutee.a(utee_syscalls_a64.o)
                0x000000000000fe30                _utee_storage_obj_write
 .text._utee_storage_obj_trunc
                0x000000000000fe3c        0xc /home/atmark/optee-build/imx-boot/imx-optee-os/out/export-ta_arm64/lib/libutee.a(utee_syscalls_a64.o)
                0x000000000000fe3c                _utee_storage_obj_trunc
 .text._utee_storage_obj_seek
                0x000000000000fe48        0xc /home/atmark/optee-build/imx-boot/imx-optee-os/out/export-ta_arm64/lib/libutee.a(utee_syscalls_a64.o)
                0x000000000000fe48                _utee_storage_obj_seek
 .text._utee_cryp_obj_generate_key
                0x000000000000fe54        0xc /home/atmark/optee-build/imx-boot/imx-optee-os/out/export-ta_arm64/lib/libutee.a(utee_syscalls_a64.o)
                0x000000000000fe54                _utee_cryp_obj_generate_key
 .text._utee_cache_operation
                0x000000000000fe60        0xc /home/atmark/optee-build/imx-boot/imx-optee-os/out/export-ta_arm64/lib/libutee.a(utee_syscalls_a64.o)
                0x000000000000fe60                _utee_cache_operation
 .text.unlikely
                0x000000000000fe6c       0x20 /home/atmark/optee-build/imx-boot/imx-optee-os/out/export-ta_arm64/lib/libutee.a(abort.o)
                0x000000000000fe6c                abort
 .text          0x000000000000fe8c        0x0 /home/atmark/optee-build/imx-boot/imx-optee-os/out/export-ta_arm64/lib/libutee.a(utee_syscalls_a64.o)
 .text          0x000000000000fe8c        0x0 /home/atmark/optee-build/imx-boot/imx-optee-os/out/export-ta_arm64/lib/libutee.a(abort.o)
 *(SORT_BY_ALIGNMENT(.stub))
 *(SORT_BY_ALIGNMENT(.glue_7))
 *(SORT_BY_ALIGNMENT(.glue_7t))
 *(SORT_BY_ALIGNMENT(.gnu.linkonce.t.*))
 *(SORT_BY_ALIGNMENT(.vfp11_veneer))
                0x000000000000fe8c                __text_end = .

.plt            0x000000000000fe8c        0x0
 *(SORT_BY_ALIGNMENT(.plt))
 .plt           0x000000000000fe8c        0x0 ./server_ta.o

.eh_frame_hdr
 *(SORT_BY_ALIGNMENT(.eh_frame_hdr))
 *(SORT_BY_ALIGNMENT(.eh_frame_entry) SORT_BY_ALIGNMENT(.eh_frame_entry.*))

.eh_frame       0x000000000000fe90     0x3690
 *(SORT_BY_ALIGNMENT(.eh_frame))
 .eh_frame      0x000000000000fe90       0xd8 ./server_ta.o
 .eh_frame      0x000000000000ff68       0x30 ./user_ta_header.o
                                         0x40 (緩和前のサイズ)
 .eh_frame      0x000000000000ff98      0x210 /home/atmark/optee-build/imx-boot/imx-optee-os/out/export-ta_arm64/lib/libutils.a(bget_malloc.o)
                                        0x228 (緩和前のサイズ)
 .eh_frame      0x00000000000101a8       0x28 /home/atmark/optee-build/imx-boot/imx-optee-os/out/export-ta_arm64/lib/libutils.a(strndup.o)
                                         0x40 (緩和前のサイズ)
 .eh_frame      0x00000000000101d0       0x18 /home/atmark/optee-build/imx-boot/imx-optee-os/out/export-ta_arm64/lib/libutils.a(memcpy.o)
                                         0x28 (緩和前のサイズ)
 .eh_frame      0x00000000000101e8       0x18 /home/atmark/optee-build/imx-boot/imx-optee-os/out/export-ta_arm64/lib/libutils.a(memset.o)
                                         0x28 (緩和前のサイズ)
 .eh_frame      0x0000000000010200       0x18 /home/atmark/optee-build/imx-boot/imx-optee-os/out/export-ta_arm64/lib/libutils.a(strnlen.o)
                                         0x28 (緩和前のサイズ)
 .eh_frame      0x0000000000010218       0xf8 /home/atmark/optee-build/imx-boot/imx-optee-os/out/export-ta_arm64/lib/libutils.a(trace.o)
                                        0x108 (緩和前のサイズ)
 .eh_frame      0x0000000000010310       0xe0 /home/atmark/optee-build/imx-boot/imx-optee-os/out/export-ta_arm64/lib/libutils.a(snprintk.o)
                                         0xf0 (緩和前のサイズ)
 .eh_frame      0x00000000000103f0       0x18 /home/atmark/optee-build/imx-boot/imx-optee-os/out/export-ta_arm64/lib/libutils.a(memchr.o)
                                         0x28 (緩和前のサイズ)
 .eh_frame      0x0000000000010408       0x18 /home/atmark/optee-build/imx-boot/imx-optee-os/out/export-ta_arm64/lib/libutils.a(strlen.o)
                                         0x28 (緩和前のサイズ)
 .eh_frame      0x0000000000010420       0x38 /home/atmark/optee-build/imx-boot/imx-optee-os/out/export-ta_arm64/lib/libutee.a(assert.o)
                                         0x50 (緩和前のサイズ)
 .eh_frame      0x0000000000010458       0xb0 /home/atmark/optee-build/imx-boot/imx-optee-os/out/export-ta_arm64/lib/libutee.a(trace_ext.o)
                                         0xc8 (緩和前のサイズ)
 .eh_frame      0x0000000000010508      0xa50 /home/atmark/optee-build/imx-boot/imx-optee-os/out/export-ta_arm64/lib/libutee.a(tee_api_operations.o)
                                        0xa68 (緩和前のサイズ)
 .eh_frame      0x0000000000010f58      0x130 /home/atmark/optee-build/imx-boot/imx-optee-os/out/export-ta_arm64/lib/libutee.a(tee_api_panic.o)
                                        0x140 (緩和前のサイズ)
 .eh_frame      0x0000000000011088      0x210 /home/atmark/optee-build/imx-boot/imx-optee-os/out/export-ta_arm64/lib/libutee.a(tee_tcpudp_socket.o)
                                        0x228 (緩和前のサイズ)
 .eh_frame      0x0000000000011298      0x168 /home/atmark/optee-build/imx-boot/imx-optee-os/out/export-ta_arm64/lib/libutee.a(user_ta_entry.o)
                                        0x180 (緩和前のサイズ)
 .eh_frame      0x0000000000011400       0x18 /home/atmark/optee-build/imx-boot/imx-optee-os/out/export-ta_arm64/lib/libutee.a(abort.o)
                                         0x30 (緩和前のサイズ)
 .eh_frame      0x0000000000011418      0x390 /home/atmark/optee-build/imx-boot/imx-optee-os/out/export-ta_arm64/lib/libutee.a(tee_api.o)
                                        0x3a0 (緩和前のサイズ)
 .eh_frame      0x00000000000117a8      0x6a8 /home/atmark/optee-build/imx-boot/imx-optee-os/out/export-ta_arm64/lib/libutee.a(tee_api_arith_mpi.o)
                                        0x6c0 (緩和前のサイズ)
 .eh_frame      0x0000000000011e50      0x6c8 /home/atmark/optee-build/imx-boot/imx-optee-os/out/export-ta_arm64/lib/libutee.a(tee_api_objects.o)
                                        0x6e0 (緩和前のサイズ)
 .eh_frame      0x0000000000012518      0x180 /home/atmark/optee-build/imx-boot/imx-optee-os/out/export-ta_arm64/lib/libutee.a(tee_socket_pta.o)
                                        0x198 (緩和前のサイズ)
 .eh_frame      0x0000000000012698       0xc8 /home/atmark/optee-build/imx-boot/imx-optee-os/out/export-ta_arm64/lib/libutee.a(tee_system_pta.o)
                                         0xd8 (緩和前のサイズ)
 .eh_frame      0x0000000000012760       0xa0 /home/atmark/optee-build/imx-boot/imx-optee-os/out/export-ta_arm64/lib/libutee.a(tcb.o)
                                         0xb8 (緩和前のサイズ)
 .eh_frame      0x0000000000012800      0xc08 /home/atmark/optee-build/imx-boot/imx-optee-os/out/export-ta_arm64/lib/libmbedtls.a(bignum.o)
                                        0xc20 (緩和前のサイズ)
 .eh_frame      0x0000000000013408       0x18 /home/atmark/optee-build/imx-boot/imx-optee-os/out/export-ta_arm64/lib/libmbedtls.a(platform_util.o)
                                         0x28 (緩和前のサイズ)
 .eh_frame      0x0000000000013420       0x40 /home/atmark/optee-build/imx-boot/imx-optee-os/out/export-ta_arm64/lib/libutils.a(snprintf.o)
                                         0x58 (緩和前のサイズ)
 .eh_frame      0x0000000000013460       0x18 /home/atmark/optee-build/imx-boot/imx-optee-os/out/export-ta_arm64/lib/libutils.a(memmove.o)
                                         0x28 (緩和前のサイズ)
 .eh_frame      0x0000000000013478       0x88 /home/atmark/optee-build/imx-boot/imx-optee-os/out/export-ta_arm64/lib/libutils.a(mempool.o)
                                         0x98 (緩和前のサイズ)
 .eh_frame      0x0000000000013500       0x20 /home/atmark/optee-build/imx-boot/imx-optee-os/out/export-ta_arm64/lib/libutils.a(consttime_memcmp.o)
                                         0x38 (緩和前のサイズ)
 *(SORT_BY_ALIGNMENT(.eh_frame.*))

.gcc_except_table
 *(SORT_BY_ALIGNMENT(.gcc_except_table) SORT_BY_ALIGNMENT(.gcc_except_table.*))

.rodata         0x0000000000013520     0x1506
 *(SORT_BY_ALIGNMENT(.gnu.linkonce.r.*))
 *(SORT_BY_ALIGNMENT(.rodata) SORT_BY_ALIGNMENT(.rodata.*))
 .rodata.str1.8
                0x0000000000013520       0x72 ./server_ta.o
 *fill*         0x0000000000013592        0x6 
 .rodata.server_ta.c
                0x0000000000013598      0x110 ./server_ta.o
 .rodata.str1.8
                0x00000000000136a8      0x134 ./user_ta_header.o
 *fill*         0x00000000000137dc        0x4 
 .rodata.user_ta_header.c
                0x00000000000137e0       0x23 ./user_ta_header.o
                0x00000000000137e0                ta_num_props
                0x00000000000137f8                ta_heap_size
                0x0000000000013800                trace_ext_prefix
 *fill*         0x0000000000013803        0x5 
 .rodata.str1.8
                0x0000000000013808      0x392 /home/atmark/optee-build/imx-boot/imx-optee-os/out/export-ta_arm64/lib/libutils.a(bget_malloc.o)
 *fill*         0x0000000000013b9a        0x6 
 .rodata.lib/libutils/isoc/bget_malloc.c
                0x0000000000013ba0       0x8b /home/atmark/optee-build/imx-boot/imx-optee-os/out/export-ta_arm64/lib/libutils.a(bget_malloc.o)
 *fill*         0x0000000000013c2b        0x5 
 .rodata.str1.8
                0x0000000000013c30       0x27 /home/atmark/optee-build/imx-boot/imx-optee-os/out/export-ta_arm64/lib/libutils.a(trace.o)
                                         0x2f (緩和前のサイズ)
 *fill*         0x0000000000013c57        0x1 
 .rodata.lib/libutils/ext/trace.c
                0x0000000000013c58        0x5 /home/atmark/optee-build/imx-boot/imx-optee-os/out/export-ta_arm64/lib/libutils.a(trace.o)
 *fill*         0x0000000000013c5d        0x3 
 .rodata.str1.8
                0x0000000000013c60       0x39 /home/atmark/optee-build/imx-boot/imx-optee-os/out/export-ta_arm64/lib/libutils.a(snprintk.o)
 *fill*         0x0000000000013c99        0x7 
 .rodata.lib/libutils/ext/snprintk.c
                0x0000000000013ca0       0xe1 /home/atmark/optee-build/imx-boot/imx-optee-os/out/export-ta_arm64/lib/libutils.a(snprintk.o)
 *fill*         0x0000000000013d81        0x7 
 .rodata.str1.8
                0x0000000000013d88       0x27 /home/atmark/optee-build/imx-boot/imx-optee-os/out/export-ta_arm64/lib/libutee.a(assert.o)
 .rodata.str1.8
                0x0000000000013daf       0x27 /home/atmark/optee-build/imx-boot/imx-optee-os/out/export-ta_arm64/lib/libutee.a(trace_ext.o)
                                          0x2 (緩和前のサイズ)
 *fill*         0x0000000000013daf        0x1 
 .rodata.str1.8
                0x0000000000013db0       0x19 /home/atmark/optee-build/imx-boot/imx-optee-os/out/export-ta_arm64/lib/libutee.a(user_ta_entry.o)
 *fill*         0x0000000000013dc9        0x7 
 .rodata.lib/libutee/arch/arm/user_ta_entry.c
                0x0000000000013dd0       0x16 /home/atmark/optee-build/imx-boot/imx-optee-os/out/export-ta_arm64/lib/libutee.a(user_ta_entry.o)
 *fill*         0x0000000000013de6        0x2 
 .rodata.str1.8
                0x0000000000013de8        0x7 /home/atmark/optee-build/imx-boot/imx-optee-os/out/export-ta_arm64/lib/libutee.a(abort.o)
 *fill*         0x0000000000013def        0x1 
 .rodata.str1.8
                0x0000000000013df0       0x11 /home/atmark/optee-build/imx-boot/imx-optee-os/out/export-ta_arm64/lib/libutee.a(tee_api.o)
 *fill*         0x0000000000013e01        0x7 
 .rodata.lib/libutee/tee_api.c
                0x0000000000013e08        0xb /home/atmark/optee-build/imx-boot/imx-optee-os/out/export-ta_arm64/lib/libutee.a(tee_api.o)
 *fill*         0x0000000000013e13        0x5 
 .rodata.str1.8
                0x0000000000013e18       0xcb /home/atmark/optee-build/imx-boot/imx-optee-os/out/export-ta_arm64/lib/libutee.a(tee_api_arith_mpi.o)
 *fill*         0x0000000000013ee3        0x5 
 .rodata.lib/libutee/tee_api_arith_mpi.c
                0x0000000000013ee8      0x175 /home/atmark/optee-build/imx-boot/imx-optee-os/out/export-ta_arm64/lib/libutee.a(tee_api_arith_mpi.o)
 *fill*         0x000000000001405d        0x3 
 .rodata.str1.8
                0x0000000000014060       0x2e /home/atmark/optee-build/imx-boot/imx-optee-os/out/export-ta_arm64/lib/libutee.a(tee_socket_pta.o)
 *fill*         0x000000000001408e        0x2 
 .rodata.lib/libutee/tee_socket_pta.c
                0x0000000000014090       0x28 /home/atmark/optee-build/imx-boot/imx-optee-os/out/export-ta_arm64/lib/libutee.a(tee_socket_pta.o)
 .rodata.str1.8
                0x00000000000140b8       0x5b /home/atmark/optee-build/imx-boot/imx-optee-os/out/export-ta_arm64/lib/libutee.a(tee_system_pta.o)
 *fill*         0x0000000000014113        0x5 
 .rodata.lib/libutee/tee_system_pta.c
                0x0000000000014118       0x37 /home/atmark/optee-build/imx-boot/imx-optee-os/out/export-ta_arm64/lib/libutee.a(tee_system_pta.o)
 *fill*         0x000000000001414f        0x1 
 .rodata.str1.8
                0x0000000000014150       0xa7 /home/atmark/optee-build/imx-boot/imx-optee-os/out/export-ta_arm64/lib/libutee.a(tcb.o)
 *fill*         0x00000000000141f7        0x1 
 .rodata.lib/libutee/arch/arm/tcb.c
                0x00000000000141f8       0x20 /home/atmark/optee-build/imx-boot/imx-optee-os/out/export-ta_arm64/lib/libutee.a(tcb.o)
 .rodata.str1.8
                0x0000000000014218      0x49f /home/atmark/optee-build/imx-boot/imx-optee-os/out/export-ta_arm64/lib/libmbedtls.a(bignum.o)
                                        0x4a7 (緩和前のサイズ)
 *fill*         0x00000000000146b7        0x1 
 .rodata.lib/libmbedtls/mbedtls/library/bignum.c
                0x00000000000146b8      0x2c4 /home/atmark/optee-build/imx-boot/imx-optee-os/out/export-ta_arm64/lib/libmbedtls.a(bignum.o)
 *fill*         0x000000000001497c        0x4 
 .rodata.str1.8
                0x0000000000014980       0x80 /home/atmark/optee-build/imx-boot/imx-optee-os/out/export-ta_arm64/lib/libutils.a(mempool.o)
 .rodata.lib/libutils/ext/mempool.c
                0x0000000000014a00       0x26 /home/atmark/optee-build/imx-boot/imx-optee-os/out/export-ta_arm64/lib/libutils.a(mempool.o)

.gnu.version_d  0x0000000000014a28        0x0
 .gnu.version_d
                0x0000000000014a28        0x0 ./server_ta.o

.gnu.version    0x0000000000014a26        0x0
 .gnu.version   0x0000000000014a26        0x0 ./server_ta.o

.gnu.version_r  0x0000000000014a28        0x0
 .gnu.version_r
                0x0000000000014a28        0x0 ./server_ta.o

.gnu.hash       0x0000000000014a28       0x30
 .gnu.hash      0x0000000000014a28       0x30 ./server_ta.o

.ARM.extab
 *(SORT_BY_ALIGNMENT(.ARM.extab*) SORT_BY_ALIGNMENT(.gnu.linkonce.armextab.*))
                [!provide]                        PROVIDE (__exidx_start = .)

.ARM.exidx
 *(SORT_BY_ALIGNMENT(.ARM.exidx*) SORT_BY_ALIGNMENT(.gnu.linkonce.armexidx.*))
                [!provide]                        PROVIDE (__exidx_end = .)

.ctors
 *(SORT_BY_ALIGNMENT(.ctors))

.dtors
 *(SORT_BY_ALIGNMENT(.dtors))

.dynsym         0x0000000000014a58       0x90
 *(SORT_BY_ALIGNMENT(.dynsym))
 .dynsym        0x0000000000014a58       0x90 ./server_ta.o

.dynstr         0x0000000000014ae8       0x2e
 *(SORT_BY_ALIGNMENT(.dynstr))
 .dynstr        0x0000000000014ae8       0x2e ./server_ta.o

.hash           0x0000000000014b18       0x2c
 *(SORT_BY_ALIGNMENT(.hash))
 .hash          0x0000000000014b18       0x2c ./server_ta.o

.rela.dyn       0x0000000000014b48      0x3d8
 .rela.data.rel.ro
                0x0000000000014b48        0x0 ./server_ta.o
 .rela.ifunc    0x0000000000014b48        0x0 ./server_ta.o
 .rela.data.rel.ro.local
                0x0000000000014b48      0x330 ./server_ta.o
 .rela.data.rel.local
                0x0000000000014e78       0x90 ./server_ta.o
 .rela.data.rel
                0x0000000000014f08       0x18 ./server_ta.o
                0x0000000000015000                . = ALIGN (0x1000)

.dynamic        0x0000000000015000      0x110
 *(SORT_BY_ALIGNMENT(.dynamic))
 .dynamic       0x0000000000015000      0x110 ./server_ta.o
                0x0000000000015000                _DYNAMIC

.tdata
 *(SORT_BY_ALIGNMENT(.tdata) SORT_BY_ALIGNMENT(.tdata.*) SORT_BY_ALIGNMENT(.gnu.linkonce.td.*))

.tbss
 *(SORT_BY_ALIGNMENT(.tbss) SORT_BY_ALIGNMENT(.tbss.*) SORT_BY_ALIGNMENT(.gnu.linkonce.tb.*))
 *(SORT_BY_ALIGNMENT(.tcommon))

.got            0x0000000000015110       0xa8
 *(SORT_BY_ALIGNMENT(.got.plt))
 .got.plt       0x0000000000015110       0x18 ./server_ta.o
 *(SORT_BY_ALIGNMENT(.got))
 .got           0x0000000000015128       0x90 ./server_ta.o
                0x0000000000015128                _GLOBAL_OFFSET_TABLE_

.rel.text
 *(SORT_BY_ALIGNMENT(.rel.text))
 *(SORT_BY_ALIGNMENT(.rel.gnu.linkonce.t*))

.rela.text
 *(SORT_BY_ALIGNMENT(.rela.text))
 *(SORT_BY_ALIGNMENT(.rela.gnu.linkonce.t*))

.rel.data
 *(SORT_BY_ALIGNMENT(.rel.data))
 *(SORT_BY_ALIGNMENT(.rel.gnu.linkonce.d*))

.rela.data
 *(SORT_BY_ALIGNMENT(.rela.data))
 *(SORT_BY_ALIGNMENT(.rela.gnu.linkonce.d*))

.rel.tdata
 *(SORT_BY_ALIGNMENT(.rel.tdata) SORT_BY_ALIGNMENT(.rel.tdata.*) SORT_BY_ALIGNMENT(.rel.gnu.linkonce.td.*))

.rela.tdata
 *(SORT_BY_ALIGNMENT(.rela.tdata) SORT_BY_ALIGNMENT(.rela.tdata.*) SORT_BY_ALIGNMENT(.rela.gnu.linkonce.td.*))

.rel.tbss
 *(SORT_BY_ALIGNMENT(.rel.tbss) SORT_BY_ALIGNMENT(.rel.tbss.*) SORT_BY_ALIGNMENT(.rel.gnu.linkonce.tb.*))

.rela.tbss
 *(SORT_BY_ALIGNMENT(.rela.tbss) SORT_BY_ALIGNMENT(.rela.tbss.*) SORT_BY_ALIGNMENT(.rela.gnu.linkonce.tb.*))

.rel.rodata
 *(SORT_BY_ALIGNMENT(.rel.rodata))
 *(SORT_BY_ALIGNMENT(.rel.gnu.linkonce.r*))

.rela.rodata
 *(SORT_BY_ALIGNMENT(.rela.rodata))
 *(SORT_BY_ALIGNMENT(.rela.gnu.linkonce.r*))

.rel.dyn
 *(SORT_BY_ALIGNMENT(.rel.dyn))

.rel.got
 *(SORT_BY_ALIGNMENT(.rel.got))

.rela.got       0x00000000000151b8      0x198
 *(SORT_BY_ALIGNMENT(.rela.got))
 .rela.got      0x00000000000151b8      0x198 ./server_ta.o

.rel.ctors
 *(SORT_BY_ALIGNMENT(.rel.ctors))

.rela.ctors
 *(SORT_BY_ALIGNMENT(.rela.ctors))

.rel.dtors
 *(SORT_BY_ALIGNMENT(.rel.dtors))

.rela.dtors
 *(SORT_BY_ALIGNMENT(.rela.dtors))

.rel.init
 *(SORT_BY_ALIGNMENT(.rel.init))

.rela.init
 *(SORT_BY_ALIGNMENT(.rela.init))

.rel.fini
 *(SORT_BY_ALIGNMENT(.rel.fini))

.rela.fini
 *(SORT_BY_ALIGNMENT(.rela.fini))

.rel.bss
 *(SORT_BY_ALIGNMENT(.rel.bss))

.rela.bss       0x0000000000015350        0x0
 *(SORT_BY_ALIGNMENT(.rela.bss))
 .rela.bss      0x0000000000015350        0x0 ./server_ta.o

.rel.plt
 *(SORT_BY_ALIGNMENT(.rel.plt))

.rela.plt       0x0000000000015350        0x0
 *(SORT_BY_ALIGNMENT(.rela.plt))
 .rela.plt      0x0000000000015350        0x0 ./server_ta.o

.data           0x0000000000015350      0x1fc
 *(SORT_BY_ALIGNMENT(.data) SORT_BY_ALIGNMENT(.data.*) SORT_BY_ALIGNMENT(.gnu.linkonce.d.*))
 .data.rel.ro.local
                0x0000000000015350       0xd8 ./user_ta_header.o
                0x0000000000015350                ta_props
 .data          0x0000000000015428        0x8 /home/atmark/optee-build/imx-boot/imx-optee-os/out/export-ta_arm64/lib/libutils.a(bget_malloc.o)
 .data.rel.local
                0x0000000000015430       0x50 /home/atmark/optee-build/imx-boot/imx-optee-os/out/export-ta_arm64/lib/libutils.a(bget_malloc.o)
 .data.rel.ro.local
                0x0000000000015480       0xa0 /home/atmark/optee-build/imx-boot/imx-optee-os/out/export-ta_arm64/lib/libutee.a(tee_tcpudp_socket.o)
                0x0000000000015480                TEE_udpSocket
                0x0000000000015488                TEE_tcpSocket
 .data.rel.local
                0x0000000000015520       0x20 /home/atmark/optee-build/imx-boot/imx-optee-os/out/export-ta_arm64/lib/libutee.a(user_ta_entry.o)
 .data.rel      0x0000000000015540        0x8 /home/atmark/optee-build/imx-boot/imx-optee-os/out/export-ta_arm64/lib/libmbedtls.a(platform_util.o)
 .data          0x0000000000015548        0x4 ./user_ta_header.o
                0x0000000000015548                trace_level
 .data          0x000000000001554c        0x0 ./server_ta.o
 .data.rel.ro   0x000000000001554c        0x0 ./server_ta.o
 .data          0x000000000001554c        0x0 /home/atmark/optee-build/imx-boot/imx-optee-os/out/export-ta_arm64/lib/libutils.a(strndup.o)
 .data          0x000000000001554c        0x0 /home/atmark/optee-build/imx-boot/imx-optee-os/out/export-ta_arm64/lib/libutils.a(memcpy.o)
 .data          0x000000000001554c        0x0 /home/atmark/optee-build/imx-boot/imx-optee-os/out/export-ta_arm64/lib/libutils.a(memset.o)
 .data          0x000000000001554c        0x0 /home/atmark/optee-build/imx-boot/imx-optee-os/out/export-ta_arm64/lib/libutils.a(strnlen.o)
 .data          0x000000000001554c        0x0 /home/atmark/optee-build/imx-boot/imx-optee-os/out/export-ta_arm64/lib/libutils.a(trace.o)
 .data          0x000000000001554c        0x0 /home/atmark/optee-build/imx-boot/imx-optee-os/out/export-ta_arm64/lib/libutils.a(snprintk.o)
 .data          0x000000000001554c        0x0 /home/atmark/optee-build/imx-boot/imx-optee-os/out/export-ta_arm64/lib/libutils.a(memchr.o)
 .data          0x000000000001554c        0x0 /home/atmark/optee-build/imx-boot/imx-optee-os/out/export-ta_arm64/lib/libutils.a(strlen.o)
 .data          0x000000000001554c        0x0 /home/atmark/optee-build/imx-boot/imx-optee-os/out/export-ta_arm64/lib/libutee.a(assert.o)
 .data          0x000000000001554c        0x0 /home/atmark/optee-build/imx-boot/imx-optee-os/out/export-ta_arm64/lib/libutee.a(trace_ext.o)
 .data          0x000000000001554c        0x0 /home/atmark/optee-build/imx-boot/imx-optee-os/out/export-ta_arm64/lib/libutee.a(tee_api_operations.o)
 .data          0x000000000001554c        0x0 /home/atmark/optee-build/imx-boot/imx-optee-os/out/export-ta_arm64/lib/libutee.a(tee_api_panic.o)
 .data          0x000000000001554c        0x0 /home/atmark/optee-build/imx-boot/imx-optee-os/out/export-ta_arm64/lib/libutee.a(tee_tcpudp_socket.o)
 .data          0x000000000001554c        0x0 /home/atmark/optee-build/imx-boot/imx-optee-os/out/export-ta_arm64/lib/libutee.a(utee_syscalls_a64.o)
 .data          0x000000000001554c        0x0 /home/atmark/optee-build/imx-boot/imx-optee-os/out/export-ta_arm64/lib/libutee.a(user_ta_entry.o)
 .data          0x000000000001554c        0x0 /home/atmark/optee-build/imx-boot/imx-optee-os/out/export-ta_arm64/lib/libutee.a(abort.o)
 .data          0x000000000001554c        0x0 /home/atmark/optee-build/imx-boot/imx-optee-os/out/export-ta_arm64/lib/libutee.a(tee_api.o)
 .data          0x000000000001554c        0x0 /home/atmark/optee-build/imx-boot/imx-optee-os/out/export-ta_arm64/lib/libutee.a(tee_api_arith_mpi.o)
 .data          0x000000000001554c        0x0 /home/atmark/optee-build/imx-boot/imx-optee-os/out/export-ta_arm64/lib/libutee.a(tee_api_objects.o)
 .data          0x000000000001554c        0x0 /home/atmark/optee-build/imx-boot/imx-optee-os/out/export-ta_arm64/lib/libutee.a(tee_socket_pta.o)
 .data          0x000000000001554c        0x0 /home/atmark/optee-build/imx-boot/imx-optee-os/out/export-ta_arm64/lib/libutee.a(tee_system_pta.o)
 .data          0x000000000001554c        0x0 /home/atmark/optee-build/imx-boot/imx-optee-os/out/export-ta_arm64/lib/libutee.a(tcb.o)
 .data          0x000000000001554c        0x0 /home/atmark/optee-build/imx-boot/imx-optee-os/out/export-ta_arm64/lib/libmbedtls.a(bignum.o)
 .data          0x000000000001554c        0x0 /home/atmark/optee-build/imx-boot/imx-optee-os/out/export-ta_arm64/lib/libmbedtls.a(platform_util.o)
 .data          0x000000000001554c        0x0 /home/atmark/optee-build/imx-boot/imx-optee-os/out/export-ta_arm64/lib/libutils.a(snprintf.o)
 .data          0x000000000001554c        0x0 /home/atmark/optee-build/imx-boot/imx-optee-os/out/export-ta_arm64/lib/libutils.a(memmove.o)
 .data          0x000000000001554c        0x0 /home/atmark/optee-build/imx-boot/imx-optee-os/out/export-ta_arm64/lib/libutils.a(mempool.o)
 .data          0x000000000001554c        0x0 /home/atmark/optee-build/imx-boot/imx-optee-os/out/export-ta_arm64/lib/libutils.a(consttime_memcmp.o)

.bss            0x0000000000015550     0xb0a0
 *(SORT_BY_ALIGNMENT(.bss) SORT_BY_ALIGNMENT(.bss.*) SORT_BY_ALIGNMENT(.gnu.linkonce.b.*) SORT_BY_ALIGNMENT(COMMON))
 .bss           0x0000000000015550     0x8000 ./user_ta_header.o
                0x0000000000015550                ta_heap
 .bss           0x000000000001d550        0x8 /home/atmark/optee-build/imx-boot/imx-optee-os/out/export-ta_arm64/lib/libutils.a(bget_malloc.o)
 .bss           0x000000000001d558       0x64 /home/atmark/optee-build/imx-boot/imx-optee-os/out/export-ta_arm64/lib/libutee.a(user_ta_entry.o)
                0x000000000001d568                __elf_phdr_info
                0x000000000001d578                ta_params
                0x000000000001d5b8                ta_param_types
 *fill*         0x000000000001d5bc        0x4 
 .bss           0x000000000001d5c0        0x8 /home/atmark/optee-build/imx-boot/imx-optee-os/out/export-ta_arm64/lib/libutee.a(tee_api.o)
 .bss           0x000000000001d5c8     0x3000 /home/atmark/optee-build/imx-boot/imx-optee-os/out/export-ta_arm64/lib/libutee.a(tee_api_arith_mpi.o)
 .bss           0x00000000000205c8        0x8 /home/atmark/optee-build/imx-boot/imx-optee-os/out/export-ta_arm64/lib/libutee.a(tee_socket_pta.o)
 .bss           0x00000000000205d0        0x8 /home/atmark/optee-build/imx-boot/imx-optee-os/out/export-ta_arm64/lib/libutee.a(tee_system_pta.o)
 .bss           0x00000000000205d8       0x10 /home/atmark/optee-build/imx-boot/imx-optee-os/out/export-ta_arm64/lib/libutee.a(tcb.o)
 .bss           0x00000000000205e8        0x8 /home/atmark/optee-build/imx-boot/imx-optee-os/out/export-ta_arm64/lib/libmbedtls.a(bignum.o)
                0x00000000000205e8                mbedtls_mpi_mempool
 .bss           0x00000000000205f0        0x0 ./server_ta.o
 .bss           0x00000000000205f0        0x0 /home/atmark/optee-build/imx-boot/imx-optee-os/out/export-ta_arm64/lib/libutils.a(strndup.o)
 .bss           0x00000000000205f0        0x0 /home/atmark/optee-build/imx-boot/imx-optee-os/out/export-ta_arm64/lib/libutils.a(memcpy.o)
 .bss           0x00000000000205f0        0x0 /home/atmark/optee-build/imx-boot/imx-optee-os/out/export-ta_arm64/lib/libutils.a(memset.o)
 .bss           0x00000000000205f0        0x0 /home/atmark/optee-build/imx-boot/imx-optee-os/out/export-ta_arm64/lib/libutils.a(strnlen.o)
 .bss           0x00000000000205f0        0x0 /home/atmark/optee-build/imx-boot/imx-optee-os/out/export-ta_arm64/lib/libutils.a(trace.o)
 .bss           0x00000000000205f0        0x0 /home/atmark/optee-build/imx-boot/imx-optee-os/out/export-ta_arm64/lib/libutils.a(snprintk.o)
 .bss           0x00000000000205f0        0x0 /home/atmark/optee-build/imx-boot/imx-optee-os/out/export-ta_arm64/lib/libutils.a(memchr.o)
 .bss           0x00000000000205f0        0x0 /home/atmark/optee-build/imx-boot/imx-optee-os/out/export-ta_arm64/lib/libutils.a(strlen.o)
 .bss           0x00000000000205f0        0x0 /home/atmark/optee-build/imx-boot/imx-optee-os/out/export-ta_arm64/lib/libutee.a(assert.o)
 .bss           0x00000000000205f0        0x0 /home/atmark/optee-build/imx-boot/imx-optee-os/out/export-ta_arm64/lib/libutee.a(trace_ext.o)
 .bss           0x00000000000205f0        0x0 /home/atmark/optee-build/imx-boot/imx-optee-os/out/export-ta_arm64/lib/libutee.a(tee_api_operations.o)
 .bss           0x00000000000205f0        0x0 /home/atmark/optee-build/imx-boot/imx-optee-os/out/export-ta_arm64/lib/libutee.a(tee_api_panic.o)
 .bss           0x00000000000205f0        0x0 /home/atmark/optee-build/imx-boot/imx-optee-os/out/export-ta_arm64/lib/libutee.a(tee_tcpudp_socket.o)
 .bss           0x00000000000205f0        0x0 /home/atmark/optee-build/imx-boot/imx-optee-os/out/export-ta_arm64/lib/libutee.a(utee_syscalls_a64.o)
 .bss           0x00000000000205f0        0x0 /home/atmark/optee-build/imx-boot/imx-optee-os/out/export-ta_arm64/lib/libutee.a(abort.o)
 .bss           0x00000000000205f0        0x0 /home/atmark/optee-build/imx-boot/imx-optee-os/out/export-ta_arm64/lib/libutee.a(tee_api_objects.o)
 .bss           0x00000000000205f0        0x0 /home/atmark/optee-build/imx-boot/imx-optee-os/out/export-ta_arm64/lib/libmbedtls.a(platform_util.o)
 .bss           0x00000000000205f0        0x0 /home/atmark/optee-build/imx-boot/imx-optee-os/out/export-ta_arm64/lib/libutils.a(snprintf.o)
 .bss           0x00000000000205f0        0x0 /home/atmark/optee-build/imx-boot/imx-optee-os/out/export-ta_arm64/lib/libutils.a(memmove.o)
 .bss           0x00000000000205f0        0x0 /home/atmark/optee-build/imx-boot/imx-optee-os/out/export-ta_arm64/lib/libutils.a(mempool.o)
 .bss           0x00000000000205f0        0x0 /home/atmark/optee-build/imx-boot/imx-optee-os/out/export-ta_arm64/lib/libutils.a(consttime_memcmp.o)
                0x00000000000205f0                . = ALIGN (0x8)
                0x00000000000205f0                __ftrace_buf_start = .
                0x00000000000205f0                . = (. + DEFINED (_mcount)?0x800:0x0)
                0x00000000000205f0                __ftrace_buf_end = .

.dynbss         0x00000000000205f0        0x0
 .dynbss        0x00000000000205f0        0x0 ./server_ta.o

/DISCARD/
 *(SORT_BY_ALIGNMENT(.interp))
LOAD ./server_ta.o
LOAD ./user_ta_header.o
START GROUP
LOAD /home/atmark/optee-build/imx-boot/imx-optee-os/out/export-ta_arm64/lib/libutils.a
LOAD /home/atmark/optee-build/imx-boot/imx-optee-os/out/export-ta_arm64/lib/libutee.a
LOAD /home/atmark/optee-build/imx-boot/imx-optee-os/out/export-ta_arm64/lib/libmbedtls.a
LOAD /home/atmark/optee-build/imx-boot/imx-optee-os/out/export-ta_arm64/lib/libdl.a
END GROUP
LOAD /usr/lib/gcc-cross/aarch64-linux-gnu/10/libgcc.a
LOAD /home/atmark/optee-build/imx-boot/imx-optee-os/out/export-ta_arm64/lib/libutils.a
OUTPUT(129f14c0-68b9-4f7b-a2c0-dcff7c0210dd.elf elf64-littleaarch64)
LOAD linker stubs

.debug_info     0x0000000000000000    0x1c0e7
 .debug_info    0x0000000000000000     0x10df ./server_ta.o
 .debug_info    0x00000000000010df      0x437 ./user_ta_header.o
 .debug_info    0x0000000000001516     0x2ccc /home/atmark/optee-build/imx-boot/imx-optee-os/out/export-ta_arm64/lib/libutils.a(bget_malloc.o)
 .debug_info    0x00000000000041e2      0x173 /home/atmark/optee-build/imx-boot/imx-optee-os/out/export-ta_arm64/lib/libutils.a(strndup.o)
 .debug_info    0x0000000000004355      0x12e /home/atmark/optee-build/imx-boot/imx-optee-os/out/export-ta_arm64/lib/libutils.a(memcpy.o)
 .debug_info    0x0000000000004483      0x120 /home/atmark/optee-build/imx-boot/imx-optee-os/out/export-ta_arm64/lib/libutils.a(memset.o)
 .debug_info    0x00000000000045a3       0xbe /home/atmark/optee-build/imx-boot/imx-optee-os/out/export-ta_arm64/lib/libutils.a(strnlen.o)
 .debug_info    0x0000000000004661      0x6cf /home/atmark/optee-build/imx-boot/imx-optee-os/out/export-ta_arm64/lib/libutils.a(trace.o)
 .debug_info    0x0000000000004d30      0x8b7 /home/atmark/optee-build/imx-boot/imx-optee-os/out/export-ta_arm64/lib/libutils.a(snprintk.o)
 .debug_info    0x00000000000055e7      0x138 /home/atmark/optee-build/imx-boot/imx-optee-os/out/export-ta_arm64/lib/libutils.a(memchr.o)
 .debug_info    0x000000000000571f       0xca /home/atmark/optee-build/imx-boot/imx-optee-os/out/export-ta_arm64/lib/libutils.a(strlen.o)
 .debug_info    0x00000000000057e9      0x191 /home/atmark/optee-build/imx-boot/imx-optee-os/out/export-ta_arm64/lib/libutee.a(assert.o)
 .debug_info    0x000000000000597a      0x33c /home/atmark/optee-build/imx-boot/imx-optee-os/out/export-ta_arm64/lib/libutee.a(trace_ext.o)
 .debug_info    0x0000000000005cb6     0x359a /home/atmark/optee-build/imx-boot/imx-optee-os/out/export-ta_arm64/lib/libutee.a(tee_api_operations.o)
 .debug_info    0x0000000000009250      0x9d8 /home/atmark/optee-build/imx-boot/imx-optee-os/out/export-ta_arm64/lib/libutee.a(tee_api_panic.o)
 .debug_info    0x0000000000009c28      0xda4 /home/atmark/optee-build/imx-boot/imx-optee-os/out/export-ta_arm64/lib/libutee.a(tee_tcpudp_socket.o)
 .debug_info    0x000000000000a9cc       0x22 /home/atmark/optee-build/imx-boot/imx-optee-os/out/export-ta_arm64/lib/libutee.a(utee_syscalls_a64.o)
 .debug_info    0x000000000000a9ee     0x150c /home/atmark/optee-build/imx-boot/imx-optee-os/out/export-ta_arm64/lib/libutee.a(user_ta_entry.o)
 .debug_info    0x000000000000befa       0xdc /home/atmark/optee-build/imx-boot/imx-optee-os/out/export-ta_arm64/lib/libutee.a(abort.o)
 .debug_info    0x000000000000bfd6     0x14f8 /home/atmark/optee-build/imx-boot/imx-optee-os/out/export-ta_arm64/lib/libutee.a(tee_api.o)
 .debug_info    0x000000000000d4ce     0x4e85 /home/atmark/optee-build/imx-boot/imx-optee-os/out/export-ta_arm64/lib/libutee.a(tee_api_arith_mpi.o)
 .debug_info    0x0000000000012353     0x1e65 /home/atmark/optee-build/imx-boot/imx-optee-os/out/export-ta_arm64/lib/libutee.a(tee_api_objects.o)
 .debug_info    0x00000000000141b8      0x8c1 /home/atmark/optee-build/imx-boot/imx-optee-os/out/export-ta_arm64/lib/libutee.a(tee_socket_pta.o)
 .debug_info    0x0000000000014a79      0x706 /home/atmark/optee-build/imx-boot/imx-optee-os/out/export-ta_arm64/lib/libutee.a(tee_system_pta.o)
 .debug_info    0x000000000001517f      0x802 /home/atmark/optee-build/imx-boot/imx-optee-os/out/export-ta_arm64/lib/libutee.a(tcb.o)
 .debug_info    0x0000000000015981     0x5ca8 /home/atmark/optee-build/imx-boot/imx-optee-os/out/export-ta_arm64/lib/libmbedtls.a(bignum.o)
 .debug_info    0x000000000001b629      0x11e /home/atmark/optee-build/imx-boot/imx-optee-os/out/export-ta_arm64/lib/libmbedtls.a(platform_util.o)
 .debug_info    0x000000000001b747      0x222 /home/atmark/optee-build/imx-boot/imx-optee-os/out/export-ta_arm64/lib/libutils.a(snprintf.o)
 .debug_info    0x000000000001b969      0x12e /home/atmark/optee-build/imx-boot/imx-optee-os/out/export-ta_arm64/lib/libutils.a(memmove.o)
 .debug_info    0x000000000001ba97      0x523 /home/atmark/optee-build/imx-boot/imx-optee-os/out/export-ta_arm64/lib/libutils.a(mempool.o)
 .debug_info    0x000000000001bfba      0x12d /home/atmark/optee-build/imx-boot/imx-optee-os/out/export-ta_arm64/lib/libutils.a(consttime_memcmp.o)

.debug_abbrev   0x0000000000000000     0x3fa8
 .debug_abbrev  0x0000000000000000      0x2ed ./server_ta.o
 .debug_abbrev  0x00000000000002ed      0x1b4 ./user_ta_header.o
 .debug_abbrev  0x00000000000004a1      0x3ed /home/atmark/optee-build/imx-boot/imx-optee-os/out/export-ta_arm64/lib/libutils.a(bget_malloc.o)
 .debug_abbrev  0x000000000000088e       0xda /home/atmark/optee-build/imx-boot/imx-optee-os/out/export-ta_arm64/lib/libutils.a(strndup.o)
 .debug_abbrev  0x0000000000000968       0xb8 /home/atmark/optee-build/imx-boot/imx-optee-os/out/export-ta_arm64/lib/libutils.a(memcpy.o)
 .debug_abbrev  0x0000000000000a20       0xb7 /home/atmark/optee-build/imx-boot/imx-optee-os/out/export-ta_arm64/lib/libutils.a(memset.o)
 .debug_abbrev  0x0000000000000ad7       0x87 /home/atmark/optee-build/imx-boot/imx-optee-os/out/export-ta_arm64/lib/libutils.a(strnlen.o)
 .debug_abbrev  0x0000000000000b5e      0x27c /home/atmark/optee-build/imx-boot/imx-optee-os/out/export-ta_arm64/lib/libutils.a(trace.o)
 .debug_abbrev  0x0000000000000dda      0x2ad /home/atmark/optee-build/imx-boot/imx-optee-os/out/export-ta_arm64/lib/libutils.a(snprintk.o)
 .debug_abbrev  0x0000000000001087       0xc6 /home/atmark/optee-build/imx-boot/imx-optee-os/out/export-ta_arm64/lib/libutils.a(memchr.o)
 .debug_abbrev  0x000000000000114d       0x87 /home/atmark/optee-build/imx-boot/imx-optee-os/out/export-ta_arm64/lib/libutils.a(strlen.o)
 .debug_abbrev  0x00000000000011d4       0xb6 /home/atmark/optee-build/imx-boot/imx-optee-os/out/export-ta_arm64/lib/libutee.a(assert.o)
 .debug_abbrev  0x000000000000128a      0x176 /home/atmark/optee-build/imx-boot/imx-optee-os/out/export-ta_arm64/lib/libutee.a(trace_ext.o)
 .debug_abbrev  0x0000000000001400      0x444 /home/atmark/optee-build/imx-boot/imx-optee-os/out/export-ta_arm64/lib/libutee.a(tee_api_operations.o)
 .debug_abbrev  0x0000000000001844      0x231 /home/atmark/optee-build/imx-boot/imx-optee-os/out/export-ta_arm64/lib/libutee.a(tee_api_panic.o)
 .debug_abbrev  0x0000000000001a75      0x26f /home/atmark/optee-build/imx-boot/imx-optee-os/out/export-ta_arm64/lib/libutee.a(tee_tcpudp_socket.o)
 .debug_abbrev  0x0000000000001ce4       0x12 /home/atmark/optee-build/imx-boot/imx-optee-os/out/export-ta_arm64/lib/libutee.a(utee_syscalls_a64.o)
 .debug_abbrev  0x0000000000001cf6      0x4c5 /home/atmark/optee-build/imx-boot/imx-optee-os/out/export-ta_arm64/lib/libutee.a(user_ta_entry.o)
 .debug_abbrev  0x00000000000021bb       0x94 /home/atmark/optee-build/imx-boot/imx-optee-os/out/export-ta_arm64/lib/libutee.a(abort.o)
 .debug_abbrev  0x000000000000224f      0x3ea /home/atmark/optee-build/imx-boot/imx-optee-os/out/export-ta_arm64/lib/libutee.a(tee_api.o)
 .debug_abbrev  0x0000000000002639      0x4fa /home/atmark/optee-build/imx-boot/imx-optee-os/out/export-ta_arm64/lib/libutee.a(tee_api_arith_mpi.o)
 .debug_abbrev  0x0000000000002b33      0x382 /home/atmark/optee-build/imx-boot/imx-optee-os/out/export-ta_arm64/lib/libutee.a(tee_api_objects.o)
 .debug_abbrev  0x0000000000002eb5      0x1e6 /home/atmark/optee-build/imx-boot/imx-optee-os/out/export-ta_arm64/lib/libutee.a(tee_socket_pta.o)
 .debug_abbrev  0x000000000000309b      0x243 /home/atmark/optee-build/imx-boot/imx-optee-os/out/export-ta_arm64/lib/libutee.a(tee_system_pta.o)
 .debug_abbrev  0x00000000000032de      0x263 /home/atmark/optee-build/imx-boot/imx-optee-os/out/export-ta_arm64/lib/libutee.a(tcb.o)
 .debug_abbrev  0x0000000000003541      0x51e /home/atmark/optee-build/imx-boot/imx-optee-os/out/export-ta_arm64/lib/libmbedtls.a(bignum.o)
 .debug_abbrev  0x0000000000003a5f       0xc3 /home/atmark/optee-build/imx-boot/imx-optee-os/out/export-ta_arm64/lib/libmbedtls.a(platform_util.o)
 .debug_abbrev  0x0000000000003b22      0x11a /home/atmark/optee-build/imx-boot/imx-optee-os/out/export-ta_arm64/lib/libutils.a(snprintf.o)
 .debug_abbrev  0x0000000000003c3c       0xb8 /home/atmark/optee-build/imx-boot/imx-optee-os/out/export-ta_arm64/lib/libutils.a(memmove.o)
 .debug_abbrev  0x0000000000003cf4      0x1f4 /home/atmark/optee-build/imx-boot/imx-optee-os/out/export-ta_arm64/lib/libutils.a(mempool.o)
 .debug_abbrev  0x0000000000003ee8       0xc0 /home/atmark/optee-build/imx-boot/imx-optee-os/out/export-ta_arm64/lib/libutils.a(consttime_memcmp.o)

.debug_loc      0x0000000000000000    0x32d6e
 .debug_loc     0x0000000000000000     0x1d31 ./server_ta.o
 .debug_loc     0x0000000000001d31      0x119 ./user_ta_header.o
 .debug_loc     0x0000000000001e4a     0x459e /home/atmark/optee-build/imx-boot/imx-optee-os/out/export-ta_arm64/lib/libutils.a(bget_malloc.o)
 .debug_loc     0x00000000000063e8      0x131 /home/atmark/optee-build/imx-boot/imx-optee-os/out/export-ta_arm64/lib/libutils.a(strndup.o)
 .debug_loc     0x0000000000006519      0x679 /home/atmark/optee-build/imx-boot/imx-optee-os/out/export-ta_arm64/lib/libutils.a(memcpy.o)
 .debug_loc     0x0000000000006b92      0x3b7 /home/atmark/optee-build/imx-boot/imx-optee-os/out/export-ta_arm64/lib/libutils.a(memset.o)
 .debug_loc     0x0000000000006f49      0x225 /home/atmark/optee-build/imx-boot/imx-optee-os/out/export-ta_arm64/lib/libutils.a(strnlen.o)
 .debug_loc     0x000000000000716e      0x9aa /home/atmark/optee-build/imx-boot/imx-optee-os/out/export-ta_arm64/lib/libutils.a(trace.o)
 .debug_loc     0x0000000000007b18     0x3262 /home/atmark/optee-build/imx-boot/imx-optee-os/out/export-ta_arm64/lib/libutils.a(snprintk.o)
 .debug_loc     0x000000000000ad7a      0x340 /home/atmark/optee-build/imx-boot/imx-optee-os/out/export-ta_arm64/lib/libutils.a(memchr.o)
 .debug_loc     0x000000000000b0ba      0x14a /home/atmark/optee-build/imx-boot/imx-optee-os/out/export-ta_arm64/lib/libutils.a(strlen.o)
 .debug_loc     0x000000000000b204      0x149 /home/atmark/optee-build/imx-boot/imx-optee-os/out/export-ta_arm64/lib/libutee.a(assert.o)
 .debug_loc     0x000000000000b34d      0x1d9 /home/atmark/optee-build/imx-boot/imx-optee-os/out/export-ta_arm64/lib/libutee.a(trace_ext.o)
 .debug_loc     0x000000000000b526     0x971a /home/atmark/optee-build/imx-boot/imx-optee-os/out/export-ta_arm64/lib/libutee.a(tee_api_operations.o)
 .debug_loc     0x0000000000014c40      0xebb /home/atmark/optee-build/imx-boot/imx-optee-os/out/export-ta_arm64/lib/libutee.a(tee_api_panic.o)
 .debug_loc     0x0000000000015afb     0x1b78 /home/atmark/optee-build/imx-boot/imx-optee-os/out/export-ta_arm64/lib/libutee.a(tee_tcpudp_socket.o)
 .debug_loc     0x0000000000017673     0x1634 /home/atmark/optee-build/imx-boot/imx-optee-os/out/export-ta_arm64/lib/libutee.a(user_ta_entry.o)
 .debug_loc     0x0000000000018ca7     0x1d0c /home/atmark/optee-build/imx-boot/imx-optee-os/out/export-ta_arm64/lib/libutee.a(tee_api.o)
 .debug_loc     0x000000000001a9b3     0x57fa /home/atmark/optee-build/imx-boot/imx-optee-os/out/export-ta_arm64/lib/libutee.a(tee_api_arith_mpi.o)
 .debug_loc     0x00000000000201ad     0x387f /home/atmark/optee-build/imx-boot/imx-optee-os/out/export-ta_arm64/lib/libutee.a(tee_api_objects.o)
 .debug_loc     0x0000000000023a2c      0xb9a /home/atmark/optee-build/imx-boot/imx-optee-os/out/export-ta_arm64/lib/libutee.a(tee_socket_pta.o)
 .debug_loc     0x00000000000245c6      0x7f4 /home/atmark/optee-build/imx-boot/imx-optee-os/out/export-ta_arm64/lib/libutee.a(tee_system_pta.o)
 .debug_loc     0x0000000000024dba      0x5c7 /home/atmark/optee-build/imx-boot/imx-optee-os/out/export-ta_arm64/lib/libutee.a(tcb.o)
 .debug_loc     0x0000000000025381     0xc78f /home/atmark/optee-build/imx-boot/imx-optee-os/out/export-ta_arm64/lib/libmbedtls.a(bignum.o)
 .debug_loc     0x0000000000031b10       0xb9 /home/atmark/optee-build/imx-boot/imx-optee-os/out/export-ta_arm64/lib/libmbedtls.a(platform_util.o)
 .debug_loc     0x0000000000031bc9      0x193 /home/atmark/optee-build/imx-boot/imx-optee-os/out/export-ta_arm64/lib/libutils.a(snprintf.o)
 .debug_loc     0x0000000000031d5c      0x77e /home/atmark/optee-build/imx-boot/imx-optee-os/out/export-ta_arm64/lib/libutils.a(memmove.o)
 .debug_loc     0x00000000000324da      0x620 /home/atmark/optee-build/imx-boot/imx-optee-os/out/export-ta_arm64/lib/libutils.a(mempool.o)
 .debug_loc     0x0000000000032afa      0x274 /home/atmark/optee-build/imx-boot/imx-optee-os/out/export-ta_arm64/lib/libutils.a(consttime_memcmp.o)

.debug_aranges  0x0000000000000000      0x950
 .debug_aranges
                0x0000000000000000       0x30 ./server_ta.o
 .debug_aranges
                0x0000000000000030       0x30 ./user_ta_header.o
 .debug_aranges
                0x0000000000000060       0x30 /home/atmark/optee-build/imx-boot/imx-optee-os/out/export-ta_arm64/lib/libutils.a(bget_malloc.o)
 .debug_aranges
                0x0000000000000090       0x30 /home/atmark/optee-build/imx-boot/imx-optee-os/out/export-ta_arm64/lib/libutils.a(strndup.o)
 .debug_aranges
                0x00000000000000c0       0x30 /home/atmark/optee-build/imx-boot/imx-optee-os/out/export-ta_arm64/lib/libutils.a(memcpy.o)
 .debug_aranges
                0x00000000000000f0       0x30 /home/atmark/optee-build/imx-boot/imx-optee-os/out/export-ta_arm64/lib/libutils.a(memset.o)
 .debug_aranges
                0x0000000000000120       0x30 /home/atmark/optee-build/imx-boot/imx-optee-os/out/export-ta_arm64/lib/libutils.a(strnlen.o)
 .debug_aranges
                0x0000000000000150       0x30 /home/atmark/optee-build/imx-boot/imx-optee-os/out/export-ta_arm64/lib/libutils.a(trace.o)
 .debug_aranges
                0x0000000000000180       0x30 /home/atmark/optee-build/imx-boot/imx-optee-os/out/export-ta_arm64/lib/libutils.a(snprintk.o)
 .debug_aranges
                0x00000000000001b0       0x30 /home/atmark/optee-build/imx-boot/imx-optee-os/out/export-ta_arm64/lib/libutils.a(memchr.o)
 .debug_aranges
                0x00000000000001e0       0x30 /home/atmark/optee-build/imx-boot/imx-optee-os/out/export-ta_arm64/lib/libutils.a(strlen.o)
 .debug_aranges
                0x0000000000000210       0x30 /home/atmark/optee-build/imx-boot/imx-optee-os/out/export-ta_arm64/lib/libutee.a(assert.o)
 .debug_aranges
                0x0000000000000240       0x30 /home/atmark/optee-build/imx-boot/imx-optee-os/out/export-ta_arm64/lib/libutee.a(trace_ext.o)
 .debug_aranges
                0x0000000000000270       0x30 /home/atmark/optee-build/imx-boot/imx-optee-os/out/export-ta_arm64/lib/libutee.a(tee_api_operations.o)
 .debug_aranges
                0x00000000000002a0       0x30 /home/atmark/optee-build/imx-boot/imx-optee-os/out/export-ta_arm64/lib/libutee.a(tee_api_panic.o)
 .debug_aranges
                0x00000000000002d0       0x30 /home/atmark/optee-build/imx-boot/imx-optee-os/out/export-ta_arm64/lib/libutee.a(tee_tcpudp_socket.o)
 .debug_aranges
                0x0000000000000300      0x3b0 /home/atmark/optee-build/imx-boot/imx-optee-os/out/export-ta_arm64/lib/libutee.a(utee_syscalls_a64.o)
 .debug_aranges
                0x00000000000006b0       0x30 /home/atmark/optee-build/imx-boot/imx-optee-os/out/export-ta_arm64/lib/libutee.a(user_ta_entry.o)
 .debug_aranges
                0x00000000000006e0       0x30 /home/atmark/optee-build/imx-boot/imx-optee-os/out/export-ta_arm64/lib/libutee.a(abort.o)
 .debug_aranges
                0x0000000000000710       0x30 /home/atmark/optee-build/imx-boot/imx-optee-os/out/export-ta_arm64/lib/libutee.a(tee_api.o)
 .debug_aranges
                0x0000000000000740       0x30 /home/atmark/optee-build/imx-boot/imx-optee-os/out/export-ta_arm64/lib/libutee.a(tee_api_arith_mpi.o)
 .debug_aranges
                0x0000000000000770       0x30 /home/atmark/optee-build/imx-boot/imx-optee-os/out/export-ta_arm64/lib/libutee.a(tee_api_objects.o)
 .debug_aranges
                0x00000000000007a0       0x30 /home/atmark/optee-build/imx-boot/imx-optee-os/out/export-ta_arm64/lib/libutee.a(tee_socket_pta.o)
 .debug_aranges
                0x00000000000007d0       0x30 /home/atmark/optee-build/imx-boot/imx-optee-os/out/export-ta_arm64/lib/libutee.a(tee_system_pta.o)
 .debug_aranges
                0x0000000000000800       0x30 /home/atmark/optee-build/imx-boot/imx-optee-os/out/export-ta_arm64/lib/libutee.a(tcb.o)
 .debug_aranges
                0x0000000000000830       0x30 /home/atmark/optee-build/imx-boot/imx-optee-os/out/export-ta_arm64/lib/libmbedtls.a(bignum.o)
 .debug_aranges
                0x0000000000000860       0x30 /home/atmark/optee-build/imx-boot/imx-optee-os/out/export-ta_arm64/lib/libmbedtls.a(platform_util.o)
 .debug_aranges
                0x0000000000000890       0x30 /home/atmark/optee-build/imx-boot/imx-optee-os/out/export-ta_arm64/lib/libutils.a(snprintf.o)
 .debug_aranges
                0x00000000000008c0       0x30 /home/atmark/optee-build/imx-boot/imx-optee-os/out/export-ta_arm64/lib/libutils.a(memmove.o)
 .debug_aranges
                0x00000000000008f0       0x30 /home/atmark/optee-build/imx-boot/imx-optee-os/out/export-ta_arm64/lib/libutils.a(mempool.o)
 .debug_aranges
                0x0000000000000920       0x30 /home/atmark/optee-build/imx-boot/imx-optee-os/out/export-ta_arm64/lib/libutils.a(consttime_memcmp.o)

.debug_ranges   0x0000000000000000     0x3450
 .debug_ranges  0x0000000000000000      0x280 ./server_ta.o
 .debug_ranges  0x0000000000000280      0xb10 /home/atmark/optee-build/imx-boot/imx-optee-os/out/export-ta_arm64/lib/libutils.a(bget_malloc.o)
 .debug_ranges  0x0000000000000d90       0x20 /home/atmark/optee-build/imx-boot/imx-optee-os/out/export-ta_arm64/lib/libutils.a(strnlen.o)
 .debug_ranges  0x0000000000000db0       0x40 /home/atmark/optee-build/imx-boot/imx-optee-os/out/export-ta_arm64/lib/libutils.a(trace.o)
 .debug_ranges  0x0000000000000df0       0x60 /home/atmark/optee-build/imx-boot/imx-optee-os/out/export-ta_arm64/lib/libutils.a(snprintk.o)
 .debug_ranges  0x0000000000000e50      0x480 /home/atmark/optee-build/imx-boot/imx-optee-os/out/export-ta_arm64/lib/libutee.a(tee_api_operations.o)
 .debug_ranges  0x00000000000012d0      0x3b0 /home/atmark/optee-build/imx-boot/imx-optee-os/out/export-ta_arm64/lib/libutee.a(tee_api_panic.o)
 .debug_ranges  0x0000000000001680       0x60 /home/atmark/optee-build/imx-boot/imx-optee-os/out/export-ta_arm64/lib/libutee.a(tee_tcpudp_socket.o)
 .debug_ranges  0x00000000000016e0      0x3b0 /home/atmark/optee-build/imx-boot/imx-optee-os/out/export-ta_arm64/lib/libutee.a(utee_syscalls_a64.o)
 .debug_ranges  0x0000000000001a90      0x370 /home/atmark/optee-build/imx-boot/imx-optee-os/out/export-ta_arm64/lib/libutee.a(user_ta_entry.o)
 .debug_ranges  0x0000000000001e00       0x20 /home/atmark/optee-build/imx-boot/imx-optee-os/out/export-ta_arm64/lib/libutee.a(abort.o)
 .debug_ranges  0x0000000000001e20      0x120 /home/atmark/optee-build/imx-boot/imx-optee-os/out/export-ta_arm64/lib/libutee.a(tee_api.o)
 .debug_ranges  0x0000000000001f40     0x1030 /home/atmark/optee-build/imx-boot/imx-optee-os/out/export-ta_arm64/lib/libutee.a(tee_api_arith_mpi.o)
 .debug_ranges  0x0000000000002f70       0x30 /home/atmark/optee-build/imx-boot/imx-optee-os/out/export-ta_arm64/lib/libutee.a(tee_api_objects.o)
 .debug_ranges  0x0000000000002fa0       0x40 /home/atmark/optee-build/imx-boot/imx-optee-os/out/export-ta_arm64/lib/libutee.a(tee_system_pta.o)
 .debug_ranges  0x0000000000002fe0       0x30 /home/atmark/optee-build/imx-boot/imx-optee-os/out/export-ta_arm64/lib/libutee.a(tcb.o)
 .debug_ranges  0x0000000000003010      0x440 /home/atmark/optee-build/imx-boot/imx-optee-os/out/export-ta_arm64/lib/libmbedtls.a(bignum.o)

.debug_macro    0x0000000000000000    0x175d4
 .debug_macro   0x0000000000000000      0x18b ./server_ta.o
 .debug_macro   0x000000000000018b      0x9a6 ./server_ta.o
 .debug_macro   0x0000000000000b31      0x16d ./server_ta.o
 .debug_macro   0x0000000000000c9e       0x16 ./server_ta.o
 .debug_macro   0x0000000000000cb4       0xed ./server_ta.o
 .debug_macro   0x0000000000000da1       0x7c ./server_ta.o
 .debug_macro   0x0000000000000e1d      0x1a7 ./server_ta.o
 .debug_macro   0x0000000000000fc4       0xc4 ./server_ta.o
 .debug_macro   0x0000000000001088       0x22 ./server_ta.o
 .debug_macro   0x00000000000010aa       0x2e ./server_ta.o
 .debug_macro   0x00000000000010d8       0x2d ./server_ta.o
 .debug_macro   0x0000000000001105      0x9b3 ./server_ta.o
 .debug_macro   0x0000000000001ab8       0x35 ./server_ta.o
 .debug_macro   0x0000000000001aed       0x3a ./server_ta.o
 .debug_macro   0x0000000000001b27       0x16 ./server_ta.o
 .debug_macro   0x0000000000001b3d       0x22 ./server_ta.o
 .debug_macro   0x0000000000001b5f       0x58 ./server_ta.o
 .debug_macro   0x0000000000001bb7       0x34 ./server_ta.o
 .debug_macro   0x0000000000001beb       0x79 ./server_ta.o
 .debug_macro   0x0000000000001c64       0x10 ./server_ta.o
 .debug_macro   0x0000000000001c74       0xd6 ./server_ta.o
 .debug_macro   0x0000000000001d4a       0x46 ./server_ta.o
 .debug_macro   0x0000000000001d90      0x119 ./user_ta_header.o
 .debug_macro   0x0000000000001ea9      0x9a6 ./user_ta_header.o
 .debug_macro   0x000000000000284f       0xe1 ./user_ta_header.o
 .debug_macro   0x0000000000002930       0x76 ./user_ta_header.o
 .debug_macro   0x00000000000029a6       0x2e ./user_ta_header.o
 .debug_macro   0x00000000000029d4      0x14d /home/atmark/optee-build/imx-boot/imx-optee-os/out/export-ta_arm64/lib/libutils.a(bget_malloc.o)
 .debug_macro   0x0000000000002b21      0x96a /home/atmark/optee-build/imx-boot/imx-optee-os/out/export-ta_arm64/lib/libutils.a(bget_malloc.o)
 .debug_macro   0x000000000000348b      0x62f /home/atmark/optee-build/imx-boot/imx-optee-os/out/export-ta_arm64/lib/libutils.a(bget_malloc.o)
 .debug_macro   0x0000000000003aba       0x78 /home/atmark/optee-build/imx-boot/imx-optee-os/out/export-ta_arm64/lib/libutils.a(bget_malloc.o)
 .debug_macro   0x0000000000003b32       0x16 /home/atmark/optee-build/imx-boot/imx-optee-os/out/export-ta_arm64/lib/libutils.a(bget_malloc.o)
 .debug_macro   0x0000000000003b48       0x10 /home/atmark/optee-build/imx-boot/imx-optee-os/out/export-ta_arm64/lib/libutils.a(bget_malloc.o)
 .debug_macro   0x0000000000003b58       0x66 /home/atmark/optee-build/imx-boot/imx-optee-os/out/export-ta_arm64/lib/libutils.a(bget_malloc.o)
 .debug_macro   0x0000000000003bbe       0xbb /home/atmark/optee-build/imx-boot/imx-optee-os/out/export-ta_arm64/lib/libutils.a(strndup.o)
 .debug_macro   0x0000000000003c79      0x96a /home/atmark/optee-build/imx-boot/imx-optee-os/out/export-ta_arm64/lib/libutils.a(strndup.o)
 .debug_macro   0x00000000000045e3       0x57 /home/atmark/optee-build/imx-boot/imx-optee-os/out/export-ta_arm64/lib/libutils.a(memcpy.o)
 .debug_macro   0x000000000000463a      0x96a /home/atmark/optee-build/imx-boot/imx-optee-os/out/export-ta_arm64/lib/libutils.a(memcpy.o)
 .debug_macro   0x0000000000004fa4       0x7c /home/atmark/optee-build/imx-boot/imx-optee-os/out/export-ta_arm64/lib/libutils.a(memcpy.o)
 .debug_macro   0x0000000000005020       0x51 /home/atmark/optee-build/imx-boot/imx-optee-os/out/export-ta_arm64/lib/libutils.a(memset.o)
 .debug_macro   0x0000000000005071      0x96a /home/atmark/optee-build/imx-boot/imx-optee-os/out/export-ta_arm64/lib/libutils.a(memset.o)
 .debug_macro   0x00000000000059db       0x45 /home/atmark/optee-build/imx-boot/imx-optee-os/out/export-ta_arm64/lib/libutils.a(strnlen.o)
 .debug_macro   0x0000000000005a20      0x96a /home/atmark/optee-build/imx-boot/imx-optee-os/out/export-ta_arm64/lib/libutils.a(strnlen.o)
 .debug_macro   0x000000000000638a       0xd6 /home/atmark/optee-build/imx-boot/imx-optee-os/out/export-ta_arm64/lib/libutils.a(trace.o)
 .debug_macro   0x0000000000006460      0x96a /home/atmark/optee-build/imx-boot/imx-optee-os/out/export-ta_arm64/lib/libutils.a(trace.o)
 .debug_macro   0x0000000000006dca       0xdb /home/atmark/optee-build/imx-boot/imx-optee-os/out/export-ta_arm64/lib/libutils.a(trace.o)
 .debug_macro   0x0000000000006ea5      0x13d /home/atmark/optee-build/imx-boot/imx-optee-os/out/export-ta_arm64/lib/libutils.a(snprintk.o)
 .debug_macro   0x0000000000006fe2      0x96a /home/atmark/optee-build/imx-boot/imx-optee-os/out/export-ta_arm64/lib/libutils.a(snprintk.o)
 .debug_macro   0x000000000000794c       0x66 /home/atmark/optee-build/imx-boot/imx-optee-os/out/export-ta_arm64/lib/libutils.a(memchr.o)
 .debug_macro   0x00000000000079b2      0x96a /home/atmark/optee-build/imx-boot/imx-optee-os/out/export-ta_arm64/lib/libutils.a(memchr.o)
 .debug_macro   0x000000000000831c       0x5a /home/atmark/optee-build/imx-boot/imx-optee-os/out/export-ta_arm64/lib/libutils.a(strlen.o)
 .debug_macro   0x0000000000008376      0x96a /home/atmark/optee-build/imx-boot/imx-optee-os/out/export-ta_arm64/lib/libutils.a(strlen.o)
 .debug_macro   0x0000000000008ce0      0x106 /home/atmark/optee-build/imx-boot/imx-optee-os/out/export-ta_arm64/lib/libutee.a(assert.o)
 .debug_macro   0x0000000000008de6      0x96a /home/atmark/optee-build/imx-boot/imx-optee-os/out/export-ta_arm64/lib/libutee.a(assert.o)
 .debug_macro   0x0000000000009750       0x10 /home/atmark/optee-build/imx-boot/imx-optee-os/out/export-ta_arm64/lib/libutee.a(assert.o)
 .debug_macro   0x0000000000009760       0xf1 /home/atmark/optee-build/imx-boot/imx-optee-os/out/export-ta_arm64/lib/libutee.a(trace_ext.o)
 .debug_macro   0x0000000000009851      0x96a /home/atmark/optee-build/imx-boot/imx-optee-os/out/export-ta_arm64/lib/libutee.a(trace_ext.o)
 .debug_macro   0x000000000000a1bb      0x180 /home/atmark/optee-build/imx-boot/imx-optee-os/out/export-ta_arm64/lib/libutee.a(tee_api_operations.o)
 .debug_macro   0x000000000000a33b      0x96a /home/atmark/optee-build/imx-boot/imx-optee-os/out/export-ta_arm64/lib/libutee.a(tee_api_operations.o)
 .debug_macro   0x000000000000aca5       0x28 /home/atmark/optee-build/imx-boot/imx-optee-os/out/export-ta_arm64/lib/libutee.a(tee_api_operations.o)
 .debug_macro   0x000000000000accd      0x1ef /home/atmark/optee-build/imx-boot/imx-optee-os/out/export-ta_arm64/lib/libutee.a(tee_api_operations.o)
 .debug_macro   0x000000000000aebc      0x108 /home/atmark/optee-build/imx-boot/imx-optee-os/out/export-ta_arm64/lib/libutee.a(tee_api_panic.o)
 .debug_macro   0x000000000000afc4      0x96a /home/atmark/optee-build/imx-boot/imx-optee-os/out/export-ta_arm64/lib/libutee.a(tee_api_panic.o)
 .debug_macro   0x000000000000b92e      0x11b /home/atmark/optee-build/imx-boot/imx-optee-os/out/export-ta_arm64/lib/libutee.a(tee_tcpudp_socket.o)
 .debug_macro   0x000000000000ba49      0x96a /home/atmark/optee-build/imx-boot/imx-optee-os/out/export-ta_arm64/lib/libutee.a(tee_tcpudp_socket.o)
 .debug_macro   0x000000000000c3b3       0x46 /home/atmark/optee-build/imx-boot/imx-optee-os/out/export-ta_arm64/lib/libutee.a(tee_tcpudp_socket.o)
 .debug_macro   0x000000000000c3f9       0x16 /home/atmark/optee-build/imx-boot/imx-optee-os/out/export-ta_arm64/lib/libutee.a(tee_tcpudp_socket.o)
 .debug_macro   0x000000000000c40f      0x1d6 /home/atmark/optee-build/imx-boot/imx-optee-os/out/export-ta_arm64/lib/libutee.a(user_ta_entry.o)
 .debug_macro   0x000000000000c5e5      0x96a /home/atmark/optee-build/imx-boot/imx-optee-os/out/export-ta_arm64/lib/libutee.a(user_ta_entry.o)
 .debug_macro   0x000000000000cf4f     0x1570 /home/atmark/optee-build/imx-boot/imx-optee-os/out/export-ta_arm64/lib/libutee.a(user_ta_entry.o)
 .debug_macro   0x000000000000e4bf       0x5f /home/atmark/optee-build/imx-boot/imx-optee-os/out/export-ta_arm64/lib/libutee.a(user_ta_entry.o)
 .debug_macro   0x000000000000e51e      0x2e2 /home/atmark/optee-build/imx-boot/imx-optee-os/out/export-ta_arm64/lib/libutee.a(user_ta_entry.o)
 .debug_macro   0x000000000000e800       0x34 /home/atmark/optee-build/imx-boot/imx-optee-os/out/export-ta_arm64/lib/libutee.a(user_ta_entry.o)
 .debug_macro   0x000000000000e834      0x11d /home/atmark/optee-build/imx-boot/imx-optee-os/out/export-ta_arm64/lib/libutee.a(abort.o)
 .debug_macro   0x000000000000e951      0x96a /home/atmark/optee-build/imx-boot/imx-optee-os/out/export-ta_arm64/lib/libutee.a(abort.o)
 .debug_macro   0x000000000000f2bb      0x17d /home/atmark/optee-build/imx-boot/imx-optee-os/out/export-ta_arm64/lib/libutee.a(tee_api.o)
 .debug_macro   0x000000000000f438      0x96a /home/atmark/optee-build/imx-boot/imx-optee-os/out/export-ta_arm64/lib/libutee.a(tee_api.o)
 .debug_macro   0x000000000000fda2      0x1b1 /home/atmark/optee-build/imx-boot/imx-optee-os/out/export-ta_arm64/lib/libutee.a(tee_api_arith_mpi.o)
 .debug_macro   0x000000000000ff53      0x96a /home/atmark/optee-build/imx-boot/imx-optee-os/out/export-ta_arm64/lib/libutee.a(tee_api_arith_mpi.o)
 .debug_macro   0x00000000000108bd      0x124 /home/atmark/optee-build/imx-boot/imx-optee-os/out/export-ta_arm64/lib/libutee.a(tee_api_arith_mpi.o)
 .debug_macro   0x00000000000109e1       0x79 /home/atmark/optee-build/imx-boot/imx-optee-os/out/export-ta_arm64/lib/libutee.a(tee_api_arith_mpi.o)
 .debug_macro   0x0000000000010a5a      0x1e9 /home/atmark/optee-build/imx-boot/imx-optee-os/out/export-ta_arm64/lib/libutee.a(tee_api_arith_mpi.o)
 .debug_macro   0x0000000000010c43      0x136 /home/atmark/optee-build/imx-boot/imx-optee-os/out/export-ta_arm64/lib/libutee.a(tee_api_objects.o)
 .debug_macro   0x0000000000010d79      0x96a /home/atmark/optee-build/imx-boot/imx-optee-os/out/export-ta_arm64/lib/libutee.a(tee_api_objects.o)
 .debug_macro   0x00000000000116e3       0xfe /home/atmark/optee-build/imx-boot/imx-optee-os/out/export-ta_arm64/lib/libutee.a(tee_socket_pta.o)
 .debug_macro   0x00000000000117e1      0x96a /home/atmark/optee-build/imx-boot/imx-optee-os/out/export-ta_arm64/lib/libutee.a(tee_socket_pta.o)
 .debug_macro   0x000000000001214b      0x13b /home/atmark/optee-build/imx-boot/imx-optee-os/out/export-ta_arm64/lib/libutee.a(tee_system_pta.o)
 .debug_macro   0x0000000000012286      0x96a /home/atmark/optee-build/imx-boot/imx-optee-os/out/export-ta_arm64/lib/libutee.a(tee_system_pta.o)
 .debug_macro   0x0000000000012bf0       0x89 /home/atmark/optee-build/imx-boot/imx-optee-os/out/export-ta_arm64/lib/libutee.a(tee_system_pta.o)
 .debug_macro   0x0000000000012c79      0x189 /home/atmark/optee-build/imx-boot/imx-optee-os/out/export-ta_arm64/lib/libutee.a(tcb.o)
 .debug_macro   0x0000000000012e02      0x96a /home/atmark/optee-build/imx-boot/imx-optee-os/out/export-ta_arm64/lib/libutee.a(tcb.o)
 .debug_macro   0x000000000001376c       0x10 /home/atmark/optee-build/imx-boot/imx-optee-os/out/export-ta_arm64/lib/libutee.a(tcb.o)
 .debug_macro   0x000000000001377c      0x1b5 /home/atmark/optee-build/imx-boot/imx-optee-os/out/export-ta_arm64/lib/libmbedtls.a(bignum.o)
 .debug_macro   0x0000000000013931      0x96a /home/atmark/optee-build/imx-boot/imx-optee-os/out/export-ta_arm64/lib/libmbedtls.a(bignum.o)
 .debug_macro   0x000000000001429b       0x19 /home/atmark/optee-build/imx-boot/imx-optee-os/out/export-ta_arm64/lib/libmbedtls.a(bignum.o)
 .debug_macro   0x00000000000142b4       0x1e /home/atmark/optee-build/imx-boot/imx-optee-os/out/export-ta_arm64/lib/libmbedtls.a(bignum.o)
 .debug_macro   0x00000000000142d2       0x10 /home/atmark/optee-build/imx-boot/imx-optee-os/out/export-ta_arm64/lib/libmbedtls.a(bignum.o)
 .debug_macro   0x00000000000142e2       0x10 /home/atmark/optee-build/imx-boot/imx-optee-os/out/export-ta_arm64/lib/libmbedtls.a(bignum.o)
 .debug_macro   0x00000000000142f2      0x14e /home/atmark/optee-build/imx-boot/imx-optee-os/out/export-ta_arm64/lib/libmbedtls.a(platform_util.o)
 .debug_macro   0x0000000000014440      0x96a /home/atmark/optee-build/imx-boot/imx-optee-os/out/export-ta_arm64/lib/libmbedtls.a(platform_util.o)
 .debug_macro   0x0000000000014daa       0x10 /home/atmark/optee-build/imx-boot/imx-optee-os/out/export-ta_arm64/lib/libmbedtls.a(platform_util.o)
 .debug_macro   0x0000000000014dba       0x7f /home/atmark/optee-build/imx-boot/imx-optee-os/out/export-ta_arm64/lib/libmbedtls.a(platform_util.o)
 .debug_macro   0x0000000000014e39       0x16 /home/atmark/optee-build/imx-boot/imx-optee-os/out/export-ta_arm64/lib/libmbedtls.a(platform_util.o)
 .debug_macro   0x0000000000014e4f       0x4d /home/atmark/optee-build/imx-boot/imx-optee-os/out/export-ta_arm64/lib/libutils.a(snprintf.o)
 .debug_macro   0x0000000000014e9c      0x96a /home/atmark/optee-build/imx-boot/imx-optee-os/out/export-ta_arm64/lib/libutils.a(snprintf.o)
 .debug_macro   0x0000000000015806       0x64 /home/atmark/optee-build/imx-boot/imx-optee-os/out/export-ta_arm64/lib/libutils.a(memmove.o)
 .debug_macro   0x000000000001586a      0x96a /home/atmark/optee-build/imx-boot/imx-optee-os/out/export-ta_arm64/lib/libutils.a(memmove.o)
 .debug_macro   0x00000000000161d4       0xed /home/atmark/optee-build/imx-boot/imx-optee-os/out/export-ta_arm64/lib/libutils.a(mempool.o)
 .debug_macro   0x00000000000162c1      0x96a /home/atmark/optee-build/imx-boot/imx-optee-os/out/export-ta_arm64/lib/libutils.a(mempool.o)
 .debug_macro   0x0000000000016c2b       0x3f /home/atmark/optee-build/imx-boot/imx-optee-os/out/export-ta_arm64/lib/libutils.a(consttime_memcmp.o)
 .debug_macro   0x0000000000016c6a      0x96a /home/atmark/optee-build/imx-boot/imx-optee-os/out/export-ta_arm64/lib/libutils.a(consttime_memcmp.o)

.debug_line     0x0000000000000000    0x1193d
 .debug_line    0x0000000000000000      0x825 ./server_ta.o
 .debug_line    0x0000000000000825      0x2a6 ./user_ta_header.o
 .debug_line    0x0000000000000acb     0x14fd /home/atmark/optee-build/imx-boot/imx-optee-os/out/export-ta_arm64/lib/libutils.a(bget_malloc.o)
 .debug_line    0x0000000000001fc8      0x1c8 /home/atmark/optee-build/imx-boot/imx-optee-os/out/export-ta_arm64/lib/libutils.a(strndup.o)
 .debug_line    0x0000000000002190      0x1d7 /home/atmark/optee-build/imx-boot/imx-optee-os/out/export-ta_arm64/lib/libutils.a(memcpy.o)
 .debug_line    0x0000000000002367      0x1ea /home/atmark/optee-build/imx-boot/imx-optee-os/out/export-ta_arm64/lib/libutils.a(memset.o)
 .debug_line    0x0000000000002551      0x14a /home/atmark/optee-build/imx-boot/imx-optee-os/out/export-ta_arm64/lib/libutils.a(strnlen.o)
 .debug_line    0x000000000000269b      0x401 /home/atmark/optee-build/imx-boot/imx-optee-os/out/export-ta_arm64/lib/libutils.a(trace.o)
 .debug_line    0x0000000000002a9c      0xd28 /home/atmark/optee-build/imx-boot/imx-optee-os/out/export-ta_arm64/lib/libutils.a(snprintk.o)
 .debug_line    0x00000000000037c4      0x1dd /home/atmark/optee-build/imx-boot/imx-optee-os/out/export-ta_arm64/lib/libutils.a(memchr.o)
 .debug_line    0x00000000000039a1      0x172 /home/atmark/optee-build/imx-boot/imx-optee-os/out/export-ta_arm64/lib/libutils.a(strlen.o)
 .debug_line    0x0000000000003b13      0x285 /home/atmark/optee-build/imx-boot/imx-optee-os/out/export-ta_arm64/lib/libutee.a(assert.o)
 .debug_line    0x0000000000003d98      0x2c7 /home/atmark/optee-build/imx-boot/imx-optee-os/out/export-ta_arm64/lib/libutee.a(trace_ext.o)
 .debug_line    0x000000000000405f     0x2507 /home/atmark/optee-build/imx-boot/imx-optee-os/out/export-ta_arm64/lib/libutee.a(tee_api_operations.o)
 .debug_line    0x0000000000006566      0x470 /home/atmark/optee-build/imx-boot/imx-optee-os/out/export-ta_arm64/lib/libutee.a(tee_api_panic.o)
 .debug_line    0x00000000000069d6      0x725 /home/atmark/optee-build/imx-boot/imx-optee-os/out/export-ta_arm64/lib/libutee.a(tee_tcpudp_socket.o)
 .debug_line    0x00000000000070fb      0x528 /home/atmark/optee-build/imx-boot/imx-optee-os/out/export-ta_arm64/lib/libutee.a(utee_syscalls_a64.o)
 .debug_line    0x0000000000007623      0xa8a /home/atmark/optee-build/imx-boot/imx-optee-os/out/export-ta_arm64/lib/libutee.a(user_ta_entry.o)
 .debug_line    0x00000000000080ad      0x221 /home/atmark/optee-build/imx-boot/imx-optee-os/out/export-ta_arm64/lib/libutee.a(abort.o)
 .debug_line    0x00000000000082ce      0xa49 /home/atmark/optee-build/imx-boot/imx-optee-os/out/export-ta_arm64/lib/libutee.a(tee_api.o)
 .debug_line    0x0000000000008d17     0x1c99 /home/atmark/optee-build/imx-boot/imx-optee-os/out/export-ta_arm64/lib/libutee.a(tee_api_arith_mpi.o)
 .debug_line    0x000000000000a9b0      0xda4 /home/atmark/optee-build/imx-boot/imx-optee-os/out/export-ta_arm64/lib/libutee.a(tee_api_objects.o)
 .debug_line    0x000000000000b754      0x51c /home/atmark/optee-build/imx-boot/imx-optee-os/out/export-ta_arm64/lib/libutee.a(tee_socket_pta.o)
 .debug_line    0x000000000000bc70      0x456 /home/atmark/optee-build/imx-boot/imx-optee-os/out/export-ta_arm64/lib/libutee.a(tee_system_pta.o)
 .debug_line    0x000000000000c0c6      0x56d /home/atmark/optee-build/imx-boot/imx-optee-os/out/export-ta_arm64/lib/libutee.a(tcb.o)
 .debug_line    0x000000000000c633     0x4735 /home/atmark/optee-build/imx-boot/imx-optee-os/out/export-ta_arm64/lib/libmbedtls.a(bignum.o)
 .debug_line    0x0000000000010d68      0x27a /home/atmark/optee-build/imx-boot/imx-optee-os/out/export-ta_arm64/lib/libmbedtls.a(platform_util.o)
 .debug_line    0x0000000000010fe2      0x163 /home/atmark/optee-build/imx-boot/imx-optee-os/out/export-ta_arm64/lib/libutils.a(snprintf.o)
 .debug_line    0x0000000000011145      0x215 /home/atmark/optee-build/imx-boot/imx-optee-os/out/export-ta_arm64/lib/libutils.a(memmove.o)
 .debug_line    0x000000000001135a      0x3f2 /home/atmark/optee-build/imx-boot/imx-optee-os/out/export-ta_arm64/lib/libutils.a(mempool.o)
 .debug_line    0x000000000001174c      0x1f1 /home/atmark/optee-build/imx-boot/imx-optee-os/out/export-ta_arm64/lib/libutils.a(consttime_memcmp.o)

.debug_str      0x0000000000000000    0x18be3
 .debug_str     0x0000000000000000     0x8d80 ./server_ta.o
                                       0x8f30 (緩和前のサイズ)
 .debug_str     0x0000000000008d80      0xf6d ./user_ta_header.o
                                       0x9672 (緩和前のサイズ)
 .debug_str     0x0000000000009ced     0x1e46 /home/atmark/optee-build/imx-boot/imx-optee-os/out/export-ta_arm64/lib/libutils.a(bget_malloc.o)
                                       0x7046 (緩和前のサイズ)
 .debug_str     0x000000000000bb33       0x4c /home/atmark/optee-build/imx-boot/imx-optee-os/out/export-ta_arm64/lib/libutils.a(strndup.o)
                                       0x5a31 (緩和前のサイズ)
 .debug_str     0x000000000000bb7f      0x36e /home/atmark/optee-build/imx-boot/imx-optee-os/out/export-ta_arm64/lib/libutils.a(memcpy.o)
                                       0x4a14 (緩和前のサイズ)
 .debug_str     0x000000000000beed       0xc5 /home/atmark/optee-build/imx-boot/imx-optee-os/out/export-ta_arm64/lib/libutils.a(memset.o)
                                       0x49b2 (緩和前のサイズ)
 .debug_str     0x000000000000bfb2       0x62 /home/atmark/optee-build/imx-boot/imx-optee-os/out/export-ta_arm64/lib/libutils.a(strnlen.o)
                                       0x492c (緩和前のサイズ)
 .debug_str     0x000000000000c014      0x155 /home/atmark/optee-build/imx-boot/imx-optee-os/out/export-ta_arm64/lib/libutils.a(trace.o)
                                       0x682f (緩和前のサイズ)
 .debug_str     0x000000000000c169      0x5bf /home/atmark/optee-build/imx-boot/imx-optee-os/out/export-ta_arm64/lib/libutils.a(snprintk.o)
                                       0x5d65 (緩和前のサイズ)
 .debug_str     0x000000000000c728      0x105 /home/atmark/optee-build/imx-boot/imx-optee-os/out/export-ta_arm64/lib/libutils.a(memchr.o)
                                       0x4bf3 (緩和前のサイズ)
 .debug_str     0x000000000000c82d       0x50 /home/atmark/optee-build/imx-boot/imx-optee-os/out/export-ta_arm64/lib/libutils.a(strlen.o)
                                       0x4b93 (緩和前のサイズ)
 .debug_str     0x000000000000c87d       0x4c /home/atmark/optee-build/imx-boot/imx-optee-os/out/export-ta_arm64/lib/libutee.a(assert.o)
                                       0x9b47 (緩和前のサイズ)
 .debug_str     0x000000000000c8c9       0x5e /home/atmark/optee-build/imx-boot/imx-optee-os/out/export-ta_arm64/lib/libutee.a(trace_ext.o)
                                       0x9e56 (緩和前のサイズ)
 .debug_str     0x000000000000c927     0x18b6 /home/atmark/optee-build/imx-boot/imx-optee-os/out/export-ta_arm64/lib/libutee.a(tee_api_operations.o)
                                       0xbe3a (緩和前のサイズ)
 .debug_str     0x000000000000e1dd      0x187 /home/atmark/optee-build/imx-boot/imx-optee-os/out/export-ta_arm64/lib/libutee.a(tee_api_panic.o)
                                       0xa0e0 (緩和前のサイズ)
 .debug_str     0x000000000000e364      0x396 /home/atmark/optee-build/imx-boot/imx-optee-os/out/export-ta_arm64/lib/libutee.a(tee_tcpudp_socket.o)
                                       0x9c72 (緩和前のサイズ)
 .debug_str     0x000000000000e6fa       0x37 /home/atmark/optee-build/imx-boot/imx-optee-os/out/export-ta_arm64/lib/libutee.a(utee_syscalls_a64.o)
                                         0x66 (緩和前のサイズ)
 .debug_str     0x000000000000e731     0x74e3 /home/atmark/optee-build/imx-boot/imx-optee-os/out/export-ta_arm64/lib/libutee.a(user_ta_entry.o)
                                      0x11f4e (緩和前のサイズ)
 .debug_str     0x0000000000015c14       0x43 /home/atmark/optee-build/imx-boot/imx-optee-os/out/export-ta_arm64/lib/libutee.a(abort.o)
                                       0x967d (緩和前のサイズ)
 .debug_str     0x0000000000015c57      0x455 /home/atmark/optee-build/imx-boot/imx-optee-os/out/export-ta_arm64/lib/libutee.a(tee_api.o)
                                       0xade2 (緩和前のサイズ)
 .debug_str     0x00000000000160ac      0xf71 /home/atmark/optee-build/imx-boot/imx-optee-os/out/export-ta_arm64/lib/libutee.a(tee_api_arith_mpi.o)
                                       0xc200 (緩和前のサイズ)
 .debug_str     0x000000000001701d      0x629 /home/atmark/optee-build/imx-boot/imx-optee-os/out/export-ta_arm64/lib/libutee.a(tee_api_objects.o)
                                       0x9f39 (緩和前のサイズ)
 .debug_str     0x0000000000017646       0x7a /home/atmark/optee-build/imx-boot/imx-optee-os/out/export-ta_arm64/lib/libutee.a(tee_socket_pta.o)
                                       0x99d5 (緩和前のサイズ)
 .debug_str     0x00000000000176c0      0x359 /home/atmark/optee-build/imx-boot/imx-optee-os/out/export-ta_arm64/lib/libutee.a(tee_system_pta.o)
                                       0xa86c (緩和前のサイズ)
 .debug_str     0x0000000000017a19      0x26b /home/atmark/optee-build/imx-boot/imx-optee-os/out/export-ta_arm64/lib/libutee.a(tcb.o)
                                      0x11723 (緩和前のサイズ)
 .debug_str     0x0000000000017c84      0x97e /home/atmark/optee-build/imx-boot/imx-optee-os/out/export-ta_arm64/lib/libmbedtls.a(bignum.o)
                                       0x782a (緩和前のサイズ)
 .debug_str     0x0000000000018602      0x3ff /home/atmark/optee-build/imx-boot/imx-optee-os/out/export-ta_arm64/lib/libmbedtls.a(platform_util.o)
                                       0x64a6 (緩和前のサイズ)
 .debug_str     0x0000000000018a01       0x46 /home/atmark/optee-build/imx-boot/imx-optee-os/out/export-ta_arm64/lib/libutils.a(snprintf.o)
                                       0x4913 (緩和前のサイズ)
 .debug_str     0x0000000000018a47       0x5b /home/atmark/optee-build/imx-boot/imx-optee-os/out/export-ta_arm64/lib/libutils.a(memmove.o)
                                       0x4c00 (緩和前のサイズ)
 .debug_str     0x0000000000018aa2       0xd9 /home/atmark/optee-build/imx-boot/imx-optee-os/out/export-ta_arm64/lib/libutils.a(mempool.o)
                                       0x6a10 (緩和前のサイズ)
 .debug_str     0x0000000000018b7b       0x68 /home/atmark/optee-build/imx-boot/imx-optee-os/out/export-ta_arm64/lib/libutils.a(consttime_memcmp.o)
                                       0x4996 (緩和前のサイズ)

.comment        0x0000000000000000       0x27
 .comment       0x0000000000000000       0x27 ./server_ta.o
                                         0x28 (緩和前のサイズ)
 .comment       0x0000000000000027       0x28 ./user_ta_header.o
 .comment       0x0000000000000027       0x28 /home/atmark/optee-build/imx-boot/imx-optee-os/out/export-ta_arm64/lib/libutils.a(bget_malloc.o)
 .comment       0x0000000000000027       0x28 /home/atmark/optee-build/imx-boot/imx-optee-os/out/export-ta_arm64/lib/libutils.a(strndup.o)
 .comment       0x0000000000000027       0x28 /home/atmark/optee-build/imx-boot/imx-optee-os/out/export-ta_arm64/lib/libutils.a(memcpy.o)
 .comment       0x0000000000000027       0x28 /home/atmark/optee-build/imx-boot/imx-optee-os/out/export-ta_arm64/lib/libutils.a(memset.o)
 .comment       0x0000000000000027       0x28 /home/atmark/optee-build/imx-boot/imx-optee-os/out/export-ta_arm64/lib/libutils.a(strnlen.o)
 .comment       0x0000000000000027       0x28 /home/atmark/optee-build/imx-boot/imx-optee-os/out/export-ta_arm64/lib/libutils.a(trace.o)
 .comment       0x0000000000000027       0x28 /home/atmark/optee-build/imx-boot/imx-optee-os/out/export-ta_arm64/lib/libutils.a(snprintk.o)
 .comment       0x0000000000000027       0x28 /home/atmark/optee-build/imx-boot/imx-optee-os/out/export-ta_arm64/lib/libutils.a(memchr.o)
 .comment       0x0000000000000027       0x28 /home/atmark/optee-build/imx-boot/imx-optee-os/out/export-ta_arm64/lib/libutils.a(strlen.o)
 .comment       0x0000000000000027       0x28 /home/atmark/optee-build/imx-boot/imx-optee-os/out/export-ta_arm64/lib/libutee.a(assert.o)
 .comment       0x0000000000000027       0x28 /home/atmark/optee-build/imx-boot/imx-optee-os/out/export-ta_arm64/lib/libutee.a(trace_ext.o)
 .comment       0x0000000000000027       0x28 /home/atmark/optee-build/imx-boot/imx-optee-os/out/export-ta_arm64/lib/libutee.a(tee_api_operations.o)
 .comment       0x0000000000000027       0x28 /home/atmark/optee-build/imx-boot/imx-optee-os/out/export-ta_arm64/lib/libutee.a(tee_api_panic.o)
 .comment       0x0000000000000027       0x28 /home/atmark/optee-build/imx-boot/imx-optee-os/out/export-ta_arm64/lib/libutee.a(tee_tcpudp_socket.o)
 .comment       0x0000000000000027       0x28 /home/atmark/optee-build/imx-boot/imx-optee-os/out/export-ta_arm64/lib/libutee.a(user_ta_entry.o)
 .comment       0x0000000000000027       0x28 /home/atmark/optee-build/imx-boot/imx-optee-os/out/export-ta_arm64/lib/libutee.a(abort.o)
 .comment       0x0000000000000027       0x28 /home/atmark/optee-build/imx-boot/imx-optee-os/out/export-ta_arm64/lib/libutee.a(tee_api.o)
 .comment       0x0000000000000027       0x28 /home/atmark/optee-build/imx-boot/imx-optee-os/out/export-ta_arm64/lib/libutee.a(tee_api_arith_mpi.o)
 .comment       0x0000000000000027       0x28 /home/atmark/optee-build/imx-boot/imx-optee-os/out/export-ta_arm64/lib/libutee.a(tee_api_objects.o)
 .comment       0x0000000000000027       0x28 /home/atmark/optee-build/imx-boot/imx-optee-os/out/export-ta_arm64/lib/libutee.a(tee_socket_pta.o)
 .comment       0x0000000000000027       0x28 /home/atmark/optee-build/imx-boot/imx-optee-os/out/export-ta_arm64/lib/libutee.a(tee_system_pta.o)
 .comment       0x0000000000000027       0x28 /home/atmark/optee-build/imx-boot/imx-optee-os/out/export-ta_arm64/lib/libutee.a(tcb.o)
 .comment       0x0000000000000027       0x28 /home/atmark/optee-build/imx-boot/imx-optee-os/out/export-ta_arm64/lib/libmbedtls.a(bignum.o)
 .comment       0x0000000000000027       0x28 /home/atmark/optee-build/imx-boot/imx-optee-os/out/export-ta_arm64/lib/libmbedtls.a(platform_util.o)
 .comment       0x0000000000000027       0x28 /home/atmark/optee-build/imx-boot/imx-optee-os/out/export-ta_arm64/lib/libutils.a(snprintf.o)
 .comment       0x0000000000000027       0x28 /home/atmark/optee-build/imx-boot/imx-optee-os/out/export-ta_arm64/lib/libutils.a(memmove.o)
 .comment       0x0000000000000027       0x28 /home/atmark/optee-build/imx-boot/imx-optee-os/out/export-ta_arm64/lib/libutils.a(mempool.o)
 .comment       0x0000000000000027       0x28 /home/atmark/optee-build/imx-boot/imx-optee-os/out/export-ta_arm64/lib/libutils.a(consttime_memcmp.o)

.note.GNU-stack
                0x0000000000000000        0x0
 .note.GNU-stack
                0x0000000000000000        0x0 ./server_ta.o
 .note.GNU-stack
                0x0000000000000000        0x0 ./user_ta_header.o
 .note.GNU-stack
                0x0000000000000000        0x0 /home/atmark/optee-build/imx-boot/imx-optee-os/out/export-ta_arm64/lib/libutils.a(bget_malloc.o)
 .note.GNU-stack
                0x0000000000000000        0x0 /home/atmark/optee-build/imx-boot/imx-optee-os/out/export-ta_arm64/lib/libutils.a(strndup.o)
 .note.GNU-stack
                0x0000000000000000        0x0 /home/atmark/optee-build/imx-boot/imx-optee-os/out/export-ta_arm64/lib/libutils.a(memcpy.o)
 .note.GNU-stack
                0x0000000000000000        0x0 /home/atmark/optee-build/imx-boot/imx-optee-os/out/export-ta_arm64/lib/libutils.a(memset.o)
 .note.GNU-stack
                0x0000000000000000        0x0 /home/atmark/optee-build/imx-boot/imx-optee-os/out/export-ta_arm64/lib/libutils.a(strnlen.o)
 .note.GNU-stack
                0x0000000000000000        0x0 /home/atmark/optee-build/imx-boot/imx-optee-os/out/export-ta_arm64/lib/libutils.a(trace.o)
 .note.GNU-stack
                0x0000000000000000        0x0 /home/atmark/optee-build/imx-boot/imx-optee-os/out/export-ta_arm64/lib/libutils.a(snprintk.o)
 .note.GNU-stack
                0x0000000000000000        0x0 /home/atmark/optee-build/imx-boot/imx-optee-os/out/export-ta_arm64/lib/libutils.a(memchr.o)
 .note.GNU-stack
                0x0000000000000000        0x0 /home/atmark/optee-build/imx-boot/imx-optee-os/out/export-ta_arm64/lib/libutils.a(strlen.o)
 .note.GNU-stack
                0x0000000000000000        0x0 /home/atmark/optee-build/imx-boot/imx-optee-os/out/export-ta_arm64/lib/libutee.a(assert.o)
 .note.GNU-stack
                0x0000000000000000        0x0 /home/atmark/optee-build/imx-boot/imx-optee-os/out/export-ta_arm64/lib/libutee.a(trace_ext.o)
 .note.GNU-stack
                0x0000000000000000        0x0 /home/atmark/optee-build/imx-boot/imx-optee-os/out/export-ta_arm64/lib/libutee.a(tee_api_operations.o)
 .note.GNU-stack
                0x0000000000000000        0x0 /home/atmark/optee-build/imx-boot/imx-optee-os/out/export-ta_arm64/lib/libutee.a(tee_api_panic.o)
 .note.GNU-stack
                0x0000000000000000        0x0 /home/atmark/optee-build/imx-boot/imx-optee-os/out/export-ta_arm64/lib/libutee.a(tee_tcpudp_socket.o)
 .note.GNU-stack
                0x0000000000000000        0x0 /home/atmark/optee-build/imx-boot/imx-optee-os/out/export-ta_arm64/lib/libutee.a(user_ta_entry.o)
 .note.GNU-stack
                0x0000000000000000        0x0 /home/atmark/optee-build/imx-boot/imx-optee-os/out/export-ta_arm64/lib/libutee.a(abort.o)
 .note.GNU-stack
                0x0000000000000000        0x0 /home/atmark/optee-build/imx-boot/imx-optee-os/out/export-ta_arm64/lib/libutee.a(tee_api.o)
 .note.GNU-stack
                0x0000000000000000        0x0 /home/atmark/optee-build/imx-boot/imx-optee-os/out/export-ta_arm64/lib/libutee.a(tee_api_arith_mpi.o)
 .note.GNU-stack
                0x0000000000000000        0x0 /home/atmark/optee-build/imx-boot/imx-optee-os/out/export-ta_arm64/lib/libutee.a(tee_api_objects.o)
 .note.GNU-stack
                0x0000000000000000        0x0 /home/atmark/optee-build/imx-boot/imx-optee-os/out/export-ta_arm64/lib/libutee.a(tee_socket_pta.o)
 .note.GNU-stack
                0x0000000000000000        0x0 /home/atmark/optee-build/imx-boot/imx-optee-os/out/export-ta_arm64/lib/libutee.a(tee_system_pta.o)
 .note.GNU-stack
                0x0000000000000000        0x0 /home/atmark/optee-build/imx-boot/imx-optee-os/out/export-ta_arm64/lib/libutee.a(tcb.o)
 .note.GNU-stack
                0x0000000000000000        0x0 /home/atmark/optee-build/imx-boot/imx-optee-os/out/export-ta_arm64/lib/libmbedtls.a(bignum.o)
 .note.GNU-stack
                0x0000000000000000        0x0 /home/atmark/optee-build/imx-boot/imx-optee-os/out/export-ta_arm64/lib/libmbedtls.a(platform_util.o)
 .note.GNU-stack
                0x0000000000000000        0x0 /home/atmark/optee-build/imx-boot/imx-optee-os/out/export-ta_arm64/lib/libutils.a(snprintf.o)
 .note.GNU-stack
                0x0000000000000000        0x0 /home/atmark/optee-build/imx-boot/imx-optee-os/out/export-ta_arm64/lib/libutils.a(memmove.o)
 .note.GNU-stack
                0x0000000000000000        0x0 /home/atmark/optee-build/imx-boot/imx-optee-os/out/export-ta_arm64/lib/libutils.a(mempool.o)
 .note.GNU-stack
                0x0000000000000000        0x0 /home/atmark/optee-build/imx-boot/imx-optee-os/out/export-ta_arm64/lib/libutils.a(consttime_memcmp.o)
