
129f14c0-68b9-4f7b-a2c0-dcff7c0210dd.elf:     ファイル形式 elf64-littleaarch64
129f14c0-68b9-4f7b-a2c0-dcff7c0210dd.elf
アーキテクチャ: aarch64, フラグ 0x00000150:
HAS_SYMS, DYNAMIC, D_PAGED
開始アドレス 0x00000000000006a0

プログラムヘッダ:
    LOAD off    0x0000000000001000 vaddr 0x0000000000000000 paddr 0x0000000000000000 align 2**12
         filesz 0x0000000000014f20 memsz 0x0000000000014f20 flags r-x
    LOAD off    0x0000000000016000 vaddr 0x0000000000015000 paddr 0x0000000000015000 align 2**12
         filesz 0x000000000000054c memsz 0x000000000000b5f0 flags rw-
 DYNAMIC off    0x0000000000016000 vaddr 0x0000000000015000 paddr 0x0000000000015000 align 2**3
         filesz 0x0000000000000110 memsz 0x0000000000000110 flags rw-
   STACK off    0x0000000000000000 vaddr 0x0000000000000000 paddr 0x0000000000000000 align 2**4
         filesz 0x0000000000000000 memsz 0x0000000000000000 flags rw-

動的セクション:
  HASH                 0x0000000000014b18
  GNU_HASH             0x0000000000014a28
  STRTAB               0x0000000000014ae8
  SYMTAB               0x0000000000014a58
  STRSZ                0x000000000000002e
  SYMENT               0x0000000000000018
  DEBUG                0x0000000000000000
  RELA                 0x0000000000014b48
  RELASZ               0x0000000000000570
  RELAENT              0x0000000000000018
  FLAGS_1              0x0000000008000000
  RELACOUNT            0x0000000000000029
private フラグ = 0:

セクション:
Idx Name          Size      VMA               LMA               File off  Algn
  0 .ta_head      00000020  0000000000000000  0000000000000000  00001000  2**3
                  CONTENTS, ALLOC, LOAD, READONLY, DATA
  1 .text         0000fe6c  0000000000000020  0000000000000020  00001020  2**4
                  CONTENTS, ALLOC, LOAD, READONLY, CODE
  2 .eh_frame     00003690  000000000000fe90  000000000000fe90  00010e90  2**3
                  CONTENTS, ALLOC, LOAD, READONLY, DATA
  3 .rodata       00001506  0000000000013520  0000000000013520  00014520  2**3
                  CONTENTS, ALLOC, LOAD, READONLY, DATA
  4 .gnu.hash     00000030  0000000000014a28  0000000000014a28  00015a28  2**3
                  CONTENTS, ALLOC, LOAD, READONLY, DATA
  5 .dynsym       00000090  0000000000014a58  0000000000014a58  00015a58  2**3
                  CONTENTS, ALLOC, LOAD, READONLY, DATA
  6 .dynstr       0000002e  0000000000014ae8  0000000000014ae8  00015ae8  2**0
                  CONTENTS, ALLOC, LOAD, READONLY, DATA
  7 .hash         0000002c  0000000000014b18  0000000000014b18  00015b18  2**3
                  CONTENTS, ALLOC, LOAD, READONLY, DATA
  8 .rela.dyn     000003d8  0000000000014b48  0000000000014b48  00015b48  2**3
                  CONTENTS, ALLOC, LOAD, READONLY, DATA
  9 .dynamic      00000110  0000000000015000  0000000000015000  00016000  2**3
                  CONTENTS, ALLOC, LOAD, DATA
 10 .got          000000a8  0000000000015110  0000000000015110  00016110  2**3
                  CONTENTS, ALLOC, LOAD, DATA
 11 .rela.got     00000198  00000000000151b8  00000000000151b8  000161b8  2**3
                  CONTENTS, ALLOC, LOAD, READONLY, DATA
 12 .data         000001fc  0000000000015350  0000000000015350  00016350  2**3
                  CONTENTS, ALLOC, LOAD, DATA
 13 .bss          0000b0a0  0000000000015550  0000000000015550  0001654c  2**3
                  ALLOC
 14 .debug_info   0001c0e7  0000000000000000  0000000000000000  0001654c  2**0
                  CONTENTS, READONLY, DEBUGGING, OCTETS
 15 .debug_abbrev 00003fa8  0000000000000000  0000000000000000  00032633  2**0
                  CONTENTS, READONLY, DEBUGGING, OCTETS
 16 .debug_loc    00032d6e  0000000000000000  0000000000000000  000365db  2**0
                  CONTENTS, READONLY, DEBUGGING, OCTETS
 17 .debug_aranges 00000950  0000000000000000  0000000000000000  00069350  2**4
                  CONTENTS, READONLY, DEBUGGING, OCTETS
 18 .debug_ranges 00003450  0000000000000000  0000000000000000  00069ca0  2**4
                  CONTENTS, READONLY, DEBUGGING, OCTETS
 19 .debug_macro  000175d4  0000000000000000  0000000000000000  0006d0f0  2**0
                  CONTENTS, READONLY, DEBUGGING, OCTETS
 20 .debug_line   0001193d  0000000000000000  0000000000000000  000846c4  2**0
                  CONTENTS, READONLY, DEBUGGING, OCTETS
 21 .debug_str    00018be3  0000000000000000  0000000000000000  00096001  2**0
                  CONTENTS, READONLY, DEBUGGING, OCTETS
 22 .comment      00000027  0000000000000000  0000000000000000  000aebe4  2**0
                  CONTENTS, READONLY
SYMBOL TABLE:
0000000000000000 l    d  .ta_head	0000000000000000 .ta_head
0000000000000020 l    d  .text	0000000000000000 .text
000000000000fe90 l    d  .eh_frame	0000000000000000 .eh_frame
0000000000013520 l    d  .rodata	0000000000000000 .rodata
0000000000014a28 l    d  .gnu.hash	0000000000000000 .gnu.hash
0000000000014a58 l    d  .dynsym	0000000000000000 .dynsym
0000000000014ae8 l    d  .dynstr	0000000000000000 .dynstr
0000000000014b18 l    d  .hash	0000000000000000 .hash
0000000000014b48 l    d  .rela.dyn	0000000000000000 .rela.dyn
0000000000015000 l    d  .dynamic	0000000000000000 .dynamic
0000000000015110 l    d  .got	0000000000000000 .got
00000000000151b8 l    d  .rela.got	0000000000000000 .rela.got
0000000000015350 l    d  .data	0000000000000000 .data
0000000000015550 l    d  .bss	0000000000000000 .bss
0000000000000000 l    d  .debug_info	0000000000000000 .debug_info
0000000000000000 l    d  .debug_abbrev	0000000000000000 .debug_abbrev
0000000000000000 l    d  .debug_loc	0000000000000000 .debug_loc
0000000000000000 l    d  .debug_aranges	0000000000000000 .debug_aranges
0000000000000000 l    d  .debug_ranges	0000000000000000 .debug_ranges
0000000000000000 l    d  .debug_macro	0000000000000000 .debug_macro
0000000000000000 l    d  .debug_line	0000000000000000 .debug_line
0000000000000000 l    d  .debug_str	0000000000000000 .debug_str
0000000000000000 l    d  .comment	0000000000000000 .comment
0000000000000000 l    df *ABS*	0000000000000000 user_ta_header.c
00000000000137e8 l     O .rodata	0000000000000004 __compound_literal.5
00000000000137ec l     O .rodata	0000000000000004 __compound_literal.4
00000000000137f0 l     O .rodata	0000000000000004 __compound_literal.3
00000000000137f4 l     O .rodata	0000000000000001 __compound_literal.2
00000000000137f5 l     O .rodata	0000000000000001 __compound_literal.1
00000000000137f6 l     O .rodata	0000000000000001 __compound_literal.0
0000000000000000 l    df *ABS*	0000000000000000 server_ta.c
0000000000013598 l     O .rodata	0000000000000014 __func__.12
00000000000135b0 l     O .rodata	0000000000000015 __func__.11
00000000000135c8 l     O .rodata	0000000000000019 __func__.10
00000000000135e8 l     O .rodata	000000000000001a __func__.9
0000000000013608 l     O .rodata	0000000000000012 __func__.8
0000000000013620 l     O .rodata	0000000000000012 __func__.7
0000000000013638 l     O .rodata	000000000000000f __func__.6
0000000000013648 l     O .rodata	000000000000000e __func__.5
0000000000013658 l     O .rodata	000000000000000e __func__.4
0000000000013668 l     O .rodata	000000000000000f __func__.3
0000000000013678 l     O .rodata	000000000000000f __func__.2
0000000000013688 l     O .rodata	0000000000000010 __func__.1
0000000000013698 l     O .rodata	0000000000000010 __func__.0
0000000000000000 l    df *ABS*	0000000000000000 bget_malloc.c
0000000000013ba0 l     O .rodata	0000000000000005 __func__.8
0000000000013ba8 l     O .rodata	0000000000000006 __func__.7
0000000000013bb0 l     O .rodata	0000000000000005 __func__.5
0000000000013bb8 l     O .rodata	0000000000000006 __func__.6
0000000000013bc0 l     O .rodata	0000000000000006 __func__.4
0000000000013bc8 l     O .rodata	000000000000000f __func__.3
0000000000013bd8 l     O .rodata	0000000000000018 CSWTCH.105
0000000000013bf0 l     O .rodata	0000000000000014 __func__.2
0000000000013c08 l     O .rodata	000000000000000e __func__.1
0000000000013c18 l     O .rodata	0000000000000013 __func__.0
0000000000015428 l     O .data	0000000000000008 next
000000000001d550 l     O .bss	0000000000000008 bchain
0000000000015430 l     O .data	0000000000000020 mypoolset
0000000000015450 l     O .data	0000000000000030 malloc_ctx
0000000000000000 l    df *ABS*	0000000000000000 strndup.c
0000000000000000 l    df *ABS*	0000000000000000 memcpy.c
0000000000000000 l    df *ABS*	0000000000000000 memset.c
0000000000000000 l    df *ABS*	0000000000000000 strnlen.c
0000000000000000 l    df *ABS*	0000000000000000 trace.c
0000000000013c58 l     O .rodata	0000000000000005 lvl_strs.0
0000000000000000 l    df *ABS*	0000000000000000 snprintk.c
0000000000001cf0 l     F .text	0000000000000ed0 kprintf.constprop.0
0000000000013d58 l     O .rodata	0000000000000011 hexdigits
0000000000013d70 l     O .rodata	0000000000000011 HEXDIGITS
0000000000000000 l    df *ABS*	0000000000000000 memchr.c
0000000000000000 l    df *ABS*	0000000000000000 strlen.c
0000000000000000 l    df *ABS*	0000000000000000 assert.c
0000000000000000 l    df *ABS*	0000000000000000 trace_ext.c
0000000000000000 l    df *ABS*	0000000000000000 tee_api_operations.c
0000000000002f60 l     F .text	0000000000000290 tee_buffer_update
0000000000000000 l    df *ABS*	0000000000000000 tee_api_panic.c
0000000000000000 l    df *ABS*	0000000000000000 tee_tcpudp_socket.c
00000000000065a0 l     F .text	0000000000000004 sock_accept
00000000000065a4 l     F .text	000000000000003c sock_error
00000000000065e0 l     F .text	0000000000000108 sock_listen
00000000000066f0 l     F .text	000000000000006c sock_recv
0000000000006760 l     F .text	0000000000000060 sock_send
00000000000067c0 l     F .text	0000000000000108 tcp_open
00000000000068d0 l     F .text	0000000000000108 udp_open
00000000000069e0 l     F .text	0000000000000098 tcp_ioctl
0000000000006a80 l     F .text	0000000000000098 udp_ioctl
0000000000006b20 l     F .text	000000000000003c sock_close
0000000000015490 l     O .data	0000000000000048 udp_socket_instance
00000000000154d8 l     O .data	0000000000000048 tcp_socket_instance
0000000000000000 l    df *ABS*	0000000000000000 user_ta_entry.c
0000000000006b60 l     F .text	00000000000000b0 _get_fn_array
0000000000006c10 l     F .text	0000000000000060 _fini_iterate_phdr_cb
0000000000006c70 l     F .text	0000000000000064 to_utee_params
0000000000006cd4 l     F .text	000000000000005c from_utee_params
0000000000006d30 l     F .text	0000000000000094 _init_iterate_phdr_cb
0000000000006f10 l     F .text	00000000000000a4 ta_header_remove_session
0000000000013dd0 l     O .rodata	0000000000000016 __func__.0
000000000001d558 l     O .bss	0000000000000008 _num_mod_init
000000000001d560 l     O .bss	0000000000000001 init_done
0000000000015520 l     O .data	0000000000000010 __phdr_info_head
0000000000015530 l     O .data	0000000000000010 ta_sessions
0000000000000000 l    df *ABS*	0000000000000000 tee_api.c
0000000000007270 l     F .text	00000000000000a8 update_out_param
0000000000007414 l     F .text	0000000000000200 copy_param
0000000000013e08 l     O .rodata	000000000000000b __func__.0
000000000001d5c0 l     O .bss	0000000000000008 tee_api_instance_data
0000000000000000 l    df *ABS*	0000000000000000 tee_api_arith_mpi.c
0000000000007b20 l     F .text	0000000000000034 api_panic
0000000000007b54 l     F .text	0000000000000034 mpi_panic
0000000000007b90 l     F .text	000000000000009c get_mpi
0000000000007c30 l     F .text	0000000000000078 copy_mpi_to_bigint
0000000000007cb0 l     F .text	0000000000000134 bigint_binary
0000000000007de4 l     F .text	00000000000006d0 mpi_egcd
00000000000084b4 l     F .text	0000000000000028 rng_read
000000000001d5c8 l     O .bss	0000000000003000 data.17
0000000000008910 l     F .text	00000000000001a8 bigint_binary_mod
0000000000013ee8 l     O .rodata	0000000000000008 __func__.14
0000000000013ef0 l     O .rodata	000000000000000e __func__.10
0000000000013f00 l     O .rodata	0000000000000009 __func__.2
0000000000013f10 l     O .rodata	0000000000000012 __func__.16
0000000000013f28 l     O .rodata	000000000000000f __func__.15
0000000000013f38 l     O .rodata	000000000000001f __func__.13
0000000000013f58 l     O .rodata	0000000000000019 __func__.12
0000000000013f78 l     O .rodata	0000000000000012 __func__.6
0000000000013f90 l     O .rodata	0000000000000015 __func__.11
0000000000013fa8 l     O .rodata	000000000000000e __func__.9
0000000000013fb8 l     O .rodata	000000000000000e __func__.8
0000000000013fc8 l     O .rodata	000000000000000e __func__.7
0000000000013fd8 l     O .rodata	0000000000000011 __func__.5
0000000000013ff0 l     O .rodata	0000000000000018 __func__.4
0000000000014008 l     O .rodata	000000000000001d __func__.3
0000000000014028 l     O .rodata	0000000000000019 __func__.1
0000000000014048 l     O .rodata	0000000000000015 __func__.0
0000000000000000 l    df *ABS*	0000000000000000 tee_api_objects.c
0000000000000000 l    df *ABS*	0000000000000000 tee_socket_pta.c
000000000000a970 l     F .text	0000000000000088 invoke_socket_pta
0000000000014090 l     O .rodata	0000000000000010 socket_uuid.1
00000000000140a0 l     O .rodata	0000000000000018 __func__.0
00000000000205c8 l     O .bss	0000000000000008 sess.2
0000000000000000 l    df *ABS*	0000000000000000 tee_system_pta.c
000000000000ad40 l     F .text	0000000000000088 invoke_system_pta
0000000000014118 l     O .rodata	0000000000000010 uuid.2
0000000000014128 l     O .rodata	000000000000000a __func__.1
0000000000014138 l     O .rodata	0000000000000017 __func__.0
00000000000205d0 l     O .bss	0000000000000008 sess.3
0000000000000000 l    df *ABS*	0000000000000000 tcb.c
00000000000141f8 l     O .rodata	0000000000000010 __func__.1
0000000000014208 l     O .rodata	0000000000000010 __func__.0
00000000000205d8 l     O .bss	0000000000000008 _tls_size
00000000000205e0 l     O .bss	0000000000000008 _tcb
0000000000000000 l    df *ABS*	0000000000000000 bignum.c
000000000000b350 l     F .text	0000000000000068 mpi_sub_hlp
000000000000b3c0 l     F .text	0000000000000408 mpi_mul_hlp
000000000000b7d0 l     F .text	0000000000000084 mpi_bigendian_to_host.part.0
000000000000da40 l     F .text	00000000000000b8 mpi_check_small_factors
000000000000e744 l     F .text	00000000000002b0 mpi_miller_rabin
00000000000146b8 l     O .rodata	00000000000002a0 small_prime
0000000000014958 l     O .rodata	0000000000000024 gcd_pairs
0000000000000000 l    df *ABS*	0000000000000000 platform_util.c
0000000000015540 l     O .data	0000000000000008 memset_func
0000000000000000 l    df *ABS*	0000000000000000 snprintf.c
0000000000000000 l    df *ABS*	0000000000000000 memmove.c
0000000000000000 l    df *ABS*	0000000000000000 mempool.c
0000000000014a00 l     O .rodata	0000000000000013 __func__.1
0000000000014a18 l     O .rodata	000000000000000e __func__.0
0000000000000000 l    df *ABS*	0000000000000000 consttime_memcmp.c
0000000000000000 l    df *ABS*	0000000000000000 utee_syscalls_a64.o
0000000000000000 l    df *ABS*	0000000000000000 abort.c
0000000000000000 l    df *ABS*	0000000000000000 
0000000000015000 l     O *ABS*	0000000000000000 _DYNAMIC
0000000000015128 l     O *ABS*	0000000000000000 _GLOBAL_OFFSET_TABLE_
0000000000002f24 g     F .text	000000000000003c putchar
0000000000009df0 g     F .text	00000000000000f8 TEE_PopulateTransientObject
0000000000009690 g     F .text	0000000000000004 TEE_BigIntConvertToFMM
0000000000009110 g     F .text	000000000000000c TEE_BigIntSquareMod
0000000000008ac0 g     F .text	00000000000001ac TEE_BigIntShiftRight
000000000000aee0 g     F .text	00000000000000d8 tee_invoke_supp_plugin
000000000000b910 g     F .text	00000000000000f8 mbedtls_mpi_grow
00000000000048a0 g     F .text	0000000000000070 TEE_DigestUpdate
0000000000007ae0 g     F .text	0000000000000008 TEE_Realloc
0000000000004550 g     F .text	0000000000000200 TEE_SetOperationKey2
0000000000006550 g     F .text	0000000000000044 __utee_check_inout_annotation
0000000000002e10 g     F .text	00000000000000d4 printf
0000000000009ef0 g     F .text	000000000000006c TEE_InitRefAttribute
000000000000fbd8 g     F .text	000000000000000c _utee_log
0000000000007734 g     F .text	0000000000000184 TEE_InvokeTACommand
00000000000063a0 g     F .text	000000000000006c __utee_check_outbuf_annotation
000000000000b864 g     F .text	0000000000000028 mbedtls_mpi_init_mempool
000000000000fd58 g     F .text	000000000000000c _utee_cryp_random_number_generate
000000000000c2d0 g     F .text	00000000000000f4 mbedtls_mpi_write_binary
00000000000055a0 g     F .text	0000000000000204 TEE_AEEncryptFinal
00000000000015d0 g     F .text	0000000000000050 strndup
0000000000001c40 g     F .text	0000000000000040 vsnprintk
000000000000cc60 g     F .text	0000000000000040 mbedtls_mpi_sub_int
000000000000f850 g     F .text	0000000000000118 memmove
000000000000f790 g     F .text	0000000000000074 snprintf
00000000000088c0 g     F .text	000000000000004c TEE_BigIntCmpS32
0000000000009f60 g     F .text	0000000000000064 TEE_InitValueAttribute
000000000000ba10 g     F .text	0000000000000134 mbedtls_mpi_shrink
0000000000008d00 g     F .text	000000000000000c TEE_BigIntAdd
000000000000fcf8 g     F .text	000000000000000c _utee_cryp_obj_restrict_usage
00000000000137f8 g     O .rodata	0000000000000008 ta_heap_size
0000000000009d70 g     F .text	000000000000007c TEE_ResetTransientObject
000000000000fda0 g     F .text	000000000000000c _utee_asymm_operate
000000000000ce54 g     F .text	000000000000024c mbedtls_mpi_read_string
0000000000004a30 g     F .text	00000000000000ec TEE_CipherInit
0000000000008d20 g     F .text	00000000000000bc TEE_BigIntNeg
000000000000fdf4 g     F .text	000000000000000c _utee_storage_free_enum
0000000000000020 g       .text	0000000000000000 __text_start
000000000000a5a0 g     F .text	0000000000000060 TEE_StartPersistentObjectEnumerator
000000000000c4d0 g     F .text	0000000000000104 mbedtls_mpi_shift_r
0000000000001554 g     F .text	0000000000000074 malloc_buffer_overlaps_heap
000000000000fca4 g     F .text	000000000000000c _utee_hash_init
00000000000090f0 g     F .text	000000000000000c TEE_BigIntSubMod
000000000000ef04 g     F .text	000000000000031c mbedtls_mpi_gen_prime
000000000000bec0 g     F .text	000000000000002c mbedtls_mpi_get_bit
000000000000c130 g     F .text	00000000000000c0 mbedtls_mpi_read_binary
0000000000005264 g     F .text	00000000000000e8 TEE_AEInit
0000000000001b30 g     F .text	000000000000006c trace_printf
000000000000db40 g     F .text	0000000000000190 mbedtls_mpi_montmul
000000000000fe60 g     F .text	000000000000000c _utee_cache_operation
0000000000001620 g     F .text	00000000000000ec memcpy
0000000000009694 g     F .text	00000000000000a8 TEE_BigIntConvertFromFMM
0000000000006390 g     F .text	0000000000000008 TEE_Panic
0000000000004750 g     F .text	0000000000000150 TEE_CopyOperation
0000000000002ee4 g     F .text	0000000000000040 puts
0000000000009740 g     F .text	0000000000000134 TEE_BigIntComputeFMM
0000000000007a50 g     F .text	0000000000000028 TEE_GetREETime
000000000000a4d0 g     F .text	0000000000000068 TEE_AllocatePersistentObjectEnumerator
0000000000015350 g     O .data	00000000000000d8 ta_props
0000000000005990 g     F .text	0000000000000168 TEE_AsymmetricEncrypt
0000000000006410 g     F .text	0000000000000044 __utee_check_instring_annotation
00000000000011c4 g     F .text	000000000000002c malloc
000000000000a110 g     F .text	00000000000000bc TEE_GenerateKey
000000000000f804 g     F .text	0000000000000040 vsnprintf
0000000000015548 g     O .data	0000000000000004 trace_level
0000000000008854 g     F .text	000000000000006c TEE_BigIntCmp
00000000000137e0 g     O .rodata	0000000000000008 ta_num_props
0000000000000cd0 g     F .text	00000000000000d8 bgetr
000000000000fdb8 g     F .text	000000000000000c _utee_storage_obj_open
000000000000fb00 g     F .text	0000000000000040 mempool_free
0000000000004b20 g     F .text	0000000000000198 TEE_CipherUpdate
000000000000fcb0 g     F .text	000000000000000c _utee_hash_update
0000000000008670 g     F .text	00000000000000b4 TEE_BigIntConvertToOctetString
00000000000041f0 g     F .text	0000000000000198 TEE_GetOperationInfoMultiple
000000000000bfe4 g     F .text	0000000000000078 mbedtls_mpi_bitlen
0000000000008c70 g     F .text	000000000000004c TEE_BigIntGetBit
0000000000013800 g     O .rodata	0000000000000003 trace_ext_prefix
000000000000fe18 g     F .text	000000000000000c _utee_storage_next_enum
00000000000009a0 g     F .text	0000000000000090 bgetz
00000000000078d0 g     F .text	000000000000000c TEE_GetInstanceData
0000000000007940 g     F .text	000000000000004c TEE_Wait
000000000000cca0 g     F .text	0000000000000180 mbedtls_mpi_mul_mpi
0000000000007b00 g     F .text	0000000000000008 TEE_CacheFlush
0000000000001870 g     F .text	00000000000002c0 trace_vprintf
0000000000000054 g     F .text	0000000000000024 TA_DestroyEntryPoint
000000000000b854 g     F .text	0000000000000010 mbedtls_mpi_init
000000000000fdd0 g     F .text	000000000000000c _utee_storage_obj_del
000000000000bf94 g     F .text	0000000000000050 mbedtls_mpi_lsb
0000000000002d70 g     F .text	0000000000000044 _assert_log
000000000000fc8c g     F .text	000000000000000c _utee_cryp_state_copy
0000000000009684 g     F .text	0000000000000008 TEE_BigIntFMMContextSizeInU32
000000000000ae40 g     F .text	00000000000000a0 tee_unmap
0000000000005180 g     F .text	00000000000000e4 TEE_MACCompareFinal
000000000000a470 g     F .text	0000000000000060 TEE_RenamePersistentObject
0000000000004910 g     F .text	0000000000000120 TEE_DigestDoFinal
00000000000084e0 g     F .text	0000000000000050 _TEE_MathAPI_Init
000000000000afc0 g     F .text	0000000000000274 __utee_tcb_init
000000000000cac0 g     F .text	00000000000000b0 mbedtls_mpi_add_mpi
000000000000fe6c g     F .text	0000000000000020 abort
00000000000064c0 g     F .text	0000000000000044 __utee_check_out_annotation
0000000000015550 g     O .bss	0000000000008000 ta_heap
0000000000009120 g     F .text	0000000000000138 TEE_BigIntInvMod
0000000000006dc4 g     F .text	0000000000000134 __utee_call_elf_init_fn
00000000000000f0 g     F .text	0000000000000024 TA_CloseSessionEntryPoint
000000000000fc14 g     F .text	000000000000000c _utee_close_ta_session
0000000000005b00 g     F .text	0000000000000168 TEE_AsymmetricDecrypt
000000000000a1d0 g     F .text	00000000000000f4 TEE_OpenPersistentObject
000000000000cb70 g     F .text	00000000000000ac mbedtls_mpi_sub_mpi
000000000000fb40 g     F .text	0000000000000080 consttime_memcmp
000000000000fbcc g     F .text	000000000000000c _utee_return
000000000000fbe4 g     F .text	000000000000000c __utee_panic
000000000000b234 g     F .text	000000000000001c __tls_get_addr
0000000000001800 g     F .text	000000000000003c strnlen
0000000000000114 g     F .text	0000000000000580 TA_InvokeCommandEntryPoint
0000000000006f00 g     F .text	0000000000000010 __utee_call_elf_fini_fn
00000000000012c0 g     F .text	000000000000001c free_wipe
000000000000f9e0 g     F .text	00000000000000d4 mempool_alloc
000000000000fbc0 g     F .text	000000000000000c _utee_panic
000000000000fab4 g     F .text	000000000000004c mempool_calloc
000000000000fe54 g     F .text	000000000000000c _utee_cryp_obj_generate_key
000000000000a0b0 g     F .text	0000000000000060 TEE_CopyObjectAttributes
000000000000fe3c g     F .text	000000000000000c _utee_storage_obj_trunc
000000000000fc44 g     F .text	000000000000000c _utee_unmask_cancellation
00000000000011f0 g     F .text	0000000000000040 calloc
0000000000007a80 g     F .text	000000000000005c TEE_Malloc
0000000000007400 g     F .text	0000000000000014 TEE_CheckMemoryAccessRights
000000000000fbf0 g     F .text	000000000000000c _utee_get_property
000000000000be54 g     F .text	0000000000000068 mbedtls_mpi_lset
000000000000a6e0 g     F .text	00000000000000b4 TEE_ReadObjectData
000000000000acc4 g     F .text	0000000000000074 __tee_socket_pta_accept
0000000000009a20 g     F .text	00000000000000cc TEE_GetObjectBufferAttribute
0000000000000080 g     F .text	000000000000006c TA_OpenSessionEntryPoint
00000000000031f0 g     F .text	0000000000000060 TEE_FreeOperation
000000000000b250 g     F .text	00000000000000fc dl_iterate_phdr
00000000000205f0 g       .bss	0000000000000000 __ftrace_buf_end
000000000001d5b8 g     O .bss	0000000000000004 ta_param_types
000000000000d610 g     F .text	0000000000000040 mbedtls_mpi_div_int
0000000000009880 g     F .text	0000000000000054 __utee_from_attr
000000000000ee30 g     F .text	00000000000000c4 mbedtls_mpi_is_prime_ext
0000000000009610 g     F .text	0000000000000054 TEE_BigIntIsProbablePrime
000000000000ce20 g     F .text	0000000000000034 mbedtls_mpi_mul_int
000000000000a3f0 g     F .text	0000000000000054 TEE_CloseAndDeletePersistentObject1
000000000000dd10 g     F .text	00000000000007b8 mbedtls_mpi_exp_mod
000000000000bca0 g     F .text	00000000000000c4 mbedtls_mpi_safe_cond_assign
000000000000c784 g     F .text	00000000000000d8 mbedtls_mpi_lt_mpi_ct
000000000000aa00 g     F .text	00000000000000b4 __tee_socket_pta_open
00000000000057a4 g     F .text	00000000000001ec TEE_AEDecryptFinal
0000000000008530 g     F .text	0000000000000064 TEE_BigIntInit
0000000000006454 g     F .text	000000000000006c __utee_check_outstring_annotation
00000000000078e0 g     F .text	0000000000000008 TEE_MemMove
000000000000f770 g     F .text	0000000000000020 mbedtls_platform_zeroize
0000000000008594 g     F .text	00000000000000d8 TEE_BigIntConvertFromOctetString
000000000000fd94 g     F .text	000000000000000c _utee_authenc_dec_final
000000000000c5d4 g     F .text	00000000000000c0 mbedtls_mpi_cmp_abs
000000000000fe24 g     F .text	000000000000000c _utee_storage_obj_read
0000000000004ee0 g     F .text	00000000000000ec TEE_MACInit
0000000000005c70 g     F .text	0000000000000160 TEE_AsymmetricSignDigest
0000000000002c10 g     F .text	00000000000000d8 memchr
0000000000007380 g     F .text	0000000000000040 TEE_UnmaskCancellation
00000000000098d4 g     F .text	000000000000004c TEE_GetObjectInfo
000000000000f220 g     F .text	0000000000000544 mbedtls_mpi_self_test
0000000000015488 g     O .data	0000000000000008 TEE_tcpSocket
0000000000015480 g     O .data	0000000000000008 TEE_udpSocket
000000000000fe48 g     F .text	000000000000000c _utee_storage_obj_seek
0000000000005404 g     F .text	0000000000000198 TEE_AEUpdate
0000000000009cf4 g     F .text	000000000000007c TEE_FreeTransientObject
000000000000fc38 g     F .text	000000000000000c _utee_check_access_rights
000000000000c860 g     F .text	0000000000000040 mbedtls_mpi_cmp_int
000000000000fe00 g     F .text	000000000000000c _utee_storage_reset_enum
0000000000000e94 g     F .text	0000000000000330 bget_main_test
00000000000060d4 g     F .text	0000000000000024 rand
0000000000006504 g     F .text	0000000000000048 __utee_check_attr_in_annotation
000000000000fd7c g     F .text	000000000000000c _utee_authenc_update_payload
0000000000004190 g     F .text	0000000000000058 TEE_GetOperationInfo
0000000000009070 g     F .text	000000000000006c TEE_BigIntMod
000000000000d724 g     F .text	00000000000000c0 mbedtls_mpi_mod_int
000000000000c080 g     F .text	00000000000000a8 mbedtls_mpi_read_binary_le
0000000000008ed0 g     F .text	00000000000001a0 TEE_BigIntDiv
000000000000fd10 g     F .text	000000000000000c _utee_cryp_obj_alloc
00000000000205f0 g       .bss	0000000000000000 __ftrace_buf_start
000000000000bb44 g     F .text	00000000000000fc mbedtls_mpi_copy
0000000000006100 g     F .text	000000000000028c TEE_IsAlgorithmSupported
0000000000002bc0 g     F .text	0000000000000044 __vsprintf
000000000000fc74 g     F .text	000000000000000c _utee_set_ta_time
000000000000fc20 g     F .text	000000000000000c _utee_invoke_ta_command
0000000000009970 g     F .text	0000000000000054 TEE_RestrictObjectUsage1
0000000000001230 g     F .text	000000000000002c realloc
000000000000bc40 g     F .text	0000000000000060 mbedtls_mpi_swap
000000000000f970 g     F .text	0000000000000068 mempool_alloc_pool
0000000000008de0 g     F .text	00000000000000e0 TEE_BigIntMul
0000000000004390 g     F .text	000000000000009c TEE_ResetOperation
000000000000c3c4 g     F .text	000000000000010c mbedtls_mpi_shift_l
000000000000c694 g     F .text	00000000000000f0 mbedtls_mpi_cmp_mpi
0000000000007900 g     F .text	0000000000000008 TEE_MemFill
00000000000012e0 g     F .text	0000000000000108 malloc_add_pool
0000000000004fd0 g     F .text	00000000000000a8 TEE_MACUpdate
0000000000001860 g     F .text	0000000000000010 trace_get_level
000000000000c8a0 g     F .text	0000000000000144 mbedtls_mpi_add_abs
00000000000099c4 g     F .text	000000000000005c TEE_RestrictObjectUsage
0000000000009674 g     F .text	0000000000000010 TEE_BigIntFMMSizeInU32
0000000000009664 g     F .text	0000000000000004 TEE_BigIntInitFMM
0000000000009c24 g     F .text	0000000000000028 TEE_CloseObject
000000000000fcc8 g     F .text	000000000000000c _utee_cipher_init
0000000000006fb4 g     F .text	00000000000002bc __utee_entry
000000000000fe8c g       .text	0000000000000000 __text_end
0000000000009260 g     F .text	0000000000000110 TEE_BigIntRelativePrime
000000000000d650 g     F .text	00000000000000d4 mbedtls_mpi_mod_mpi
000000000000fcec g     F .text	000000000000000c _utee_cryp_obj_get_info
0000000000000db0 g     F .text	00000000000000e4 bpool
000000000000fc80 g     F .text	000000000000000c _utee_cryp_state_alloc
0000000000007350 g     F .text	0000000000000030 TEE_GetCancellationFlag
000000000000e4d0 g     F .text	00000000000001b8 mbedtls_mpi_gcd
0000000000007a00 g     F .text	0000000000000050 TEE_SetTAPersistentTime
000000000000ab50 g     F .text	0000000000000058 __tee_socket_pta_recv
000000000000c1f0 g     F .text	00000000000000dc mbedtls_mpi_write_binary_le
0000000000001710 g     F .text	00000000000000f0 memset
0000000000007990 g     F .text	0000000000000070 TEE_GetTAPersistentTime
0000000000001ba0 g     F .text	0000000000000004 dhex_dump
000000000000a2c4 g     F .text	0000000000000128 TEE_CreatePersistentObject
00000000000073c0 g     F .text	0000000000000040 TEE_MaskCancellation
0000000000005350 g     F .text	00000000000000b4 TEE_AEUpdateAAD
000000000000a800 g     F .text	0000000000000060 TEE_TruncateObjectData
000000000000fd04 g     F .text	000000000000000c _utee_cryp_obj_get_attr
0000000000009920 g     F .text	0000000000000050 TEE_GetObjectInfo1
000000000000fce0 g     F .text	000000000000000c _utee_cipher_final
0000000000001840 g     F .text	000000000000001c trace_set_level
0000000000009af0 g     F .text	0000000000000134 TEE_GetObjectValueAttribute
0000000000004430 g     F .text	0000000000000118 TEE_SetOperationKey
000000000000fc98 g     F .text	000000000000000c _utee_cryp_state_free
000000000000fc08 g     F .text	000000000000000c _utee_open_ta_session
00000000000087b4 g     F .text	00000000000000a0 TEE_BigIntConvertToS32
0000000000008d10 g     F .text	000000000000000c TEE_BigIntSub
00000000000006b4 g     F .text	0000000000000008 tahead_get_trace_level
000000000000fe0c g     F .text	000000000000000c _utee_storage_start_enum
000000000000a860 g     F .text	0000000000000108 TEE_SeekObjectData
000000000000add0 g     F .text	000000000000006c tee_map_zi
000000000000dcd0 g     F .text	0000000000000040 mbedtls_mpi_montred
0000000000001260 g     F .text	0000000000000038 memalign
0000000000004cc0 g     F .text	0000000000000220 TEE_CipherDoFinal
0000000000008724 g     F .text	0000000000000090 TEE_BigIntConvertFromS32
000000000000cc20 g     F .text	0000000000000040 mbedtls_mpi_add_int
000000000000fd88 g     F .text	000000000000000c _utee_authenc_enc_final
00000000000013f0 g     F .text	0000000000000164 malloc_buffer_is_within_alloced
000000000000fd1c g     F .text	000000000000000c _utee_cryp_obj_close
0000000000009670 g     F .text	0000000000000004 TEE_BigIntInitFMMContext
000000000000fc50 g     F .text	000000000000000c _utee_mask_cancellation
000000000000fddc g     F .text	000000000000000c _utee_storage_obj_rename
000000000000a794 g     F .text	0000000000000068 TEE_WriteObjectData
000000000000a570 g     F .text	0000000000000028 TEE_ResetPersistentObjectEnumerator
0000000000008ec0 g     F .text	0000000000000008 TEE_BigIntSquare
000000000000fe30 g     F .text	000000000000000c _utee_storage_obj_write
0000000000000020 g     F .text	0000000000000034 TA_CreateEntryPoint
00000000000006a0 g     F .text	0000000000000014 __ta_entry
000000000000fd70 g     F .text	000000000000000c _utee_authenc_update_aad
000000000000db00 g     F .text	000000000000003c mbedtls_mpi_montg_init
0000000000001c80 g     F .text	0000000000000070 snprintk
0000000000008cc0 g     F .text	0000000000000040 TEE_BigIntGetBitCount
000000000000fd40 g     F .text	000000000000000c _utee_cryp_obj_copy
000000000000ac10 g     F .text	00000000000000b4 __tee_socket_pta_listen
0000000000009100 g     F .text	000000000000000c TEE_BigIntMulMod
000000000000e9f4 g     F .text	000000000000043c mbedtls_mpi_inv_mod
0000000000005f10 g     F .text	00000000000001a0 TEE_DeriveKey
000000000001d578 g     O .bss	0000000000000040 ta_params
000000000000d0a0 g     F .text	000000000000056c mbedtls_mpi_div_mpi
000000000000c060 g     F .text	000000000000001c mbedtls_mpi_size
00000000000006c0 g     F .text	00000000000002dc bget
0000000000009c50 g     F .text	00000000000000a4 TEE_AllocateTransientObject
000000000000fc5c g     F .text	000000000000000c _utee_wait
000000000000bef0 g     F .text	00000000000000a4 mbedtls_mpi_set_bit
0000000000007af0 g     F .text	0000000000000004 TEE_Free
000000000000eef4 g     F .text	0000000000000010 mbedtls_mpi_is_prime
0000000000007b10 g     F .text	0000000000000008 TEE_CacheInvalidate
0000000000002db4 g     F .text	0000000000000014 _assert_break
00000000000090e0 g     F .text	000000000000000c TEE_BigIntAddMod
000000000000fc68 g     F .text	000000000000000c _utee_get_time
0000000000003250 g     F .text	0000000000000f40 TEE_AllocateOperation
000000000000fd34 g     F .text	000000000000000c _utee_cryp_obj_populate
000000000000aaf0 g     F .text	0000000000000058 __tee_socket_pta_send
00000000000060b0 g     F .text	0000000000000024 TEE_GenerateRandom
00000000000078f0 g     F .text	0000000000000008 TEE_MemCompare
000000000000fcd4 g     F .text	000000000000000c _utee_cipher_update
0000000000001bb0 g     F .text	0000000000000088 __vsnprintf
000000000001d568 g     O .bss	0000000000000010 __elf_phdr_info
000000000000a540 g     F .text	0000000000000028 TEE_FreePersistentObjectEnumerator
0000000000007614 g     F .text	0000000000000120 TEE_OpenTASession
000000000000aab4 g     F .text	0000000000000038 __tee_socket_pta_close
0000000000002dd0 g     F .text	0000000000000028 trace_ext_puts
0000000000002e00 g     F .text	0000000000000008 trace_ext_get_thread_id
000000000000a444 g     F .text	000000000000002c TEE_CloseAndDeletePersistentObject
000000000000abb0 g     F .text	000000000000005c __tee_socket_pta_ioctl
000000000000fd4c g     F .text	000000000000000c _utee_cryp_derive_key
000000000000b890 g     F .text	0000000000000080 mbedtls_mpi_free
000000000000fd28 g     F .text	000000000000000c _utee_cryp_obj_reset
0000000000007af4 g     F .text	0000000000000008 TEE_CacheClean
000000000000fbfc g     F .text	000000000000000c _utee_get_property_name_to_index
000000000000bd64 g     F .text	00000000000000f0 mbedtls_mpi_safe_cond_swap
000000000000fd64 g     F .text	000000000000000c _utee_authenc_init
0000000000009fc4 g     F .text	00000000000000e4 TEE_CopyObjectAttributes1
0000000000002cf0 g     F .text	000000000000007c strlen
0000000000009370 g     F .text	000000000000029c TEE_BigIntComputeExtendedGcd
000000000000fde8 g     F .text	000000000000000c _utee_storage_alloc_enum
0000000000007910 g     F .text	0000000000000028 TEE_GetSystemTime
000000000000fdac g     F .text	000000000000000c _utee_asymm_verify
0000000000000000 g     O .ta_head	0000000000000020 ta_head
0000000000000a30 g     F .text	00000000000002a0 brel
000000000000c9e4 g     F .text	00000000000000d8 mbedtls_mpi_sub_abs
000000000000e690 g     F .text	00000000000000b4 mbedtls_mpi_fill_random
00000000000078c0 g     F .text	000000000000000c TEE_SetInstanceData
000000000000fc2c g     F .text	000000000000000c _utee_get_cancellation_flag
000000000000d7e4 g     F .text	0000000000000254 mbedtls_mpi_write_string
000000000000a600 g     F .text	00000000000000dc TEE_GetNextPersistentObject
0000000000007320 g     F .text	0000000000000028 TEE_CloseTASession
0000000000005dd0 g     F .text	0000000000000140 TEE_AsymmetricVerifyDigest
000000000000fdc4 g     F .text	000000000000000c _utee_storage_obj_create
00000000000012a0 g     F .text	000000000000001c free
0000000000005080 g     F .text	0000000000000100 TEE_MACComputeFinal
00000000000205e8 g     O .bss	0000000000000008 mbedtls_mpi_mempool
000000000000fcbc g     F .text	000000000000000c _utee_hash_final



セクション .text の逆アセンブル:

0000000000000020 <TA_CreateEntryPoint>:
TA_CreateEntryPoint():
/home/atmark/workspace/optee/optee_server/ta/server_ta.c:41
      20:	a9bf7bfd 	stp	x29, x30, [sp, #-16]!
/home/atmark/workspace/optee/optee_server/ta/server_ta.c:42
      24:	52800023 	mov	w3, #0x1                   	// #1
      28:	52800062 	mov	w2, #0x3                   	// #3
/home/atmark/workspace/optee/optee_server/ta/server_ta.c:41
      2c:	910003fd 	mov	x29, sp
/home/atmark/workspace/optee/optee_server/ta/server_ta.c:42
      30:	52800541 	mov	w1, #0x2a                  	// #42
      34:	f0000084 	adrp	x4, 13000 <__text_end+0x3174>
      38:	f0000080 	adrp	x0, 13000 <__text_end+0x3174>
      3c:	91148084 	add	x4, x4, #0x520
      40:	91166000 	add	x0, x0, #0x598
      44:	940006bb 	bl	1b30 <trace_printf>
/home/atmark/workspace/optee/optee_server/ta/server_ta.c:44
      48:	52800000 	mov	w0, #0x0                   	// #0
      4c:	a8c17bfd 	ldp	x29, x30, [sp], #16
      50:	d65f03c0 	ret

0000000000000054 <TA_DestroyEntryPoint>:
TA_DestroyEntryPoint():
/home/atmark/workspace/optee/optee_server/ta/server_ta.c:48
      54:	f0000080 	adrp	x0, 13000 <__text_end+0x3174>
      58:	91166000 	add	x0, x0, #0x598
      5c:	91006000 	add	x0, x0, #0x18
      60:	f0000084 	adrp	x4, 13000 <__text_end+0x3174>
      64:	52800023 	mov	w3, #0x1                   	// #1
      68:	91148084 	add	x4, x4, #0x520
      6c:	52800062 	mov	w2, #0x3                   	// #3
      70:	52800601 	mov	w1, #0x30                  	// #48
      74:	140006af 	b	1b30 <trace_printf>
      78:	d503201f 	nop
      7c:	d503201f 	nop

0000000000000080 <TA_OpenSessionEntryPoint>:
TA_OpenSessionEntryPoint():
/home/atmark/workspace/optee/optee_server/ta/server_ta.c:54
      80:	a9be7bfd 	stp	x29, x30, [sp, #-32]!
/home/atmark/workspace/optee/optee_server/ta/server_ta.c:60
      84:	f0000084 	adrp	x4, 13000 <__text_end+0x3174>
      88:	52800023 	mov	w3, #0x1                   	// #1
/home/atmark/workspace/optee/optee_server/ta/server_ta.c:54
      8c:	910003fd 	mov	x29, sp
      90:	a90153f3 	stp	x19, x20, [sp, #16]
/home/atmark/workspace/optee/optee_server/ta/server_ta.c:60
      94:	f0000093 	adrp	x19, 13000 <__text_end+0x3174>
      98:	91166273 	add	x19, x19, #0x598
      9c:	9100c273 	add	x19, x19, #0x30
/home/atmark/workspace/optee/optee_server/ta/server_ta.c:54
      a0:	2a0003f4 	mov	w20, w0
/home/atmark/workspace/optee/optee_server/ta/server_ta.c:60
      a4:	91148084 	add	x4, x4, #0x520
      a8:	aa1303e0 	mov	x0, x19
      ac:	52800062 	mov	w2, #0x3                   	// #3
      b0:	52800781 	mov	w1, #0x3c                  	// #60
      b4:	9400069f 	bl	1b30 <trace_printf>
/home/atmark/workspace/optee/optee_server/ta/server_ta.c:63
      b8:	129fff20 	mov	w0, #0xffff0006            	// #-65530
/home/atmark/workspace/optee/optee_server/ta/server_ta.c:62
      bc:	35000134 	cbnz	w20, e0 <TA_OpenSessionEntryPoint+0x60>
/home/atmark/workspace/optee/optee_server/ta/server_ta.c:68
      c0:	aa1303e0 	mov	x0, x19
      c4:	f0000084 	adrp	x4, 13000 <__text_end+0x3174>
      c8:	52800023 	mov	w3, #0x1                   	// #1
      cc:	9114c084 	add	x4, x4, #0x530
      d0:	52800042 	mov	w2, #0x2                   	// #2
      d4:	52800881 	mov	w1, #0x44                  	// #68
      d8:	94000696 	bl	1b30 <trace_printf>
/home/atmark/workspace/optee/optee_server/ta/server_ta.c:70
      dc:	52800000 	mov	w0, #0x0                   	// #0
/home/atmark/workspace/optee/optee_server/ta/server_ta.c:71
      e0:	a94153f3 	ldp	x19, x20, [sp, #16]
      e4:	a8c27bfd 	ldp	x29, x30, [sp], #32
      e8:	d65f03c0 	ret
      ec:	d503201f 	nop

00000000000000f0 <TA_CloseSessionEntryPoint>:
TA_CloseSessionEntryPoint():
/home/atmark/workspace/optee/optee_server/ta/server_ta.c:77
      f0:	f0000080 	adrp	x0, 13000 <__text_end+0x3174>
      f4:	91166000 	add	x0, x0, #0x598
      f8:	91014000 	add	x0, x0, #0x50
      fc:	f0000084 	adrp	x4, 13000 <__text_end+0x3174>
     100:	52800023 	mov	w3, #0x1                   	// #1
     104:	91150084 	add	x4, x4, #0x540
     108:	52800042 	mov	w2, #0x2                   	// #2
     10c:	528009a1 	mov	w1, #0x4d                  	// #77
     110:	14000688 	b	1b30 <trace_printf>

0000000000000114 <TA_InvokeCommandEntryPoint>:
TA_InvokeCommandEntryPoint():
/home/atmark/workspace/optee/optee_server/ta/server_ta.c:352
     114:	a9ba7bfd 	stp	x29, x30, [sp, #-96]!
     118:	910003fd 	mov	x29, sp
     11c:	a90153f3 	stp	x19, x20, [sp, #16]
     120:	aa0303f4 	mov	x20, x3
     124:	a9025bf5 	stp	x21, x22, [sp, #32]
/home/atmark/workspace/optee/optee_server/ta/server_ta.c:355
     128:	7100103f 	cmp	w1, #0x4
     12c:	540010c0 	b.eq	344 <TA_InvokeCommandEntryPoint+0x230>  // b.none
     130:	2a0103f3 	mov	w19, w1
     134:	54000349 	b.ls	19c <TA_InvokeCommandEntryPoint+0x88>  // b.plast
     138:	71001c3f 	cmp	w1, #0x7
     13c:	540011e0 	b.eq	378 <TA_InvokeCommandEntryPoint+0x264>  // b.none
     140:	540005e9 	b.ls	1fc <TA_InvokeCommandEntryPoint+0xe8>  // b.plast
     144:	7100203f 	cmp	w1, #0x8
     148:	54000d61 	b.ne	2f4 <TA_InvokeCommandEntryPoint+0x1e0>  // b.any
ta_entry_accept():
/home/atmark/workspace/optee/optee_server/ta/server_ta.c:331
     14c:	7101945f 	cmp	w2, #0x65
     150:	54002061 	b.ne	55c <TA_InvokeCommandEntryPoint+0x448>  // b.any
/home/atmark/workspace/optee/optee_server/ta/server_ta.c:337
     154:	b9400860 	ldr	w0, [x3, #8]
/home/atmark/workspace/optee/optee_server/ta/server_ta.c:338
     158:	129fff35 	mov	w21, #0xffff0006            	// #-65530
/home/atmark/workspace/optee/optee_server/ta/server_ta.c:337
     15c:	7100401f 	cmp	w0, #0x10
     160:	54000cc1 	b.ne	2f8 <TA_InvokeCommandEntryPoint+0x1e4>  // b.any
/home/atmark/workspace/optee/optee_server/ta/server_ta.c:340
     164:	f9400060 	ldr	x0, [x3]
/home/atmark/workspace/optee/optee_server/ta/server_ta.c:341
     168:	f9400401 	ldr	x1, [x0, #8]
     16c:	f9402021 	ldr	x1, [x1, #64]
/home/atmark/workspace/optee/optee_server/ta/server_ta.c:340
     170:	f90027e0 	str	x0, [sp, #72]
/home/atmark/workspace/optee/optee_server/ta/server_ta.c:341
     174:	f9400000 	ldr	x0, [x0]
     178:	d63f0020 	blr	x1
     17c:	2a0003f5 	mov	w21, w0
/home/atmark/workspace/optee/optee_server/ta/server_ta.c:342
     180:	35000bc0 	cbnz	w0, 2f8 <TA_InvokeCommandEntryPoint+0x1e4>
/home/atmark/workspace/optee/optee_server/ta/server_ta.c:343
     184:	f9400a80 	ldr	x0, [x20, #16]
     188:	910123e1 	add	x1, sp, #0x48
     18c:	d2800102 	mov	x2, #0x8                   	// #8
     190:	94000524 	bl	1620 <memcpy>
/home/atmark/workspace/optee/optee_server/ta/server_ta.c:344
     194:	b9001a93 	str	w19, [x20, #24]
     198:	14000058 	b	2f8 <TA_InvokeCommandEntryPoint+0x1e4>
TA_InvokeCommandEntryPoint():
/home/atmark/workspace/optee/optee_server/ta/server_ta.c:355
     19c:	7100083f 	cmp	w1, #0x2
     1a0:	540016e0 	b.eq	47c <TA_InvokeCommandEntryPoint+0x368>  // b.none
     1a4:	71000c3f 	cmp	w1, #0x3
     1a8:	54000521 	b.ne	24c <TA_InvokeCommandEntryPoint+0x138>  // b.any
ta_entry_send():
/home/atmark/workspace/optee/optee_server/ta/server_ta.c:197
     1ac:	710d545f 	cmp	w2, #0x355
     1b0:	540018a1 	b.ne	4c4 <TA_InvokeCommandEntryPoint+0x3b0>  // b.any
/home/atmark/workspace/optee/optee_server/ta/server_ta.c:203
     1b4:	b9400860 	ldr	w0, [x3, #8]
     1b8:	7100401f 	cmp	w0, #0x10
     1bc:	540009c1 	b.ne	2f4 <TA_InvokeCommandEntryPoint+0x1e0>  // b.any
/home/atmark/workspace/optee/optee_server/ta/server_ta.c:206
     1c0:	aa0303e0 	mov	x0, x3
/home/atmark/workspace/optee/optee_server/ta/server_ta.c:207
     1c4:	b9401861 	ldr	w1, [x3, #24]
/home/atmark/workspace/optee/optee_server/ta/server_ta.c:208
     1c8:	91009062 	add	x2, x3, #0x24
     1cc:	b9402063 	ldr	w3, [x3, #32]
/home/atmark/workspace/optee/optee_server/ta/server_ta.c:206
     1d0:	f8420404 	ldr	x4, [x0], #32
/home/atmark/workspace/optee/optee_server/ta/server_ta.c:208
     1d4:	f9400485 	ldr	x5, [x4, #8]
/home/atmark/workspace/optee/optee_server/ta/server_ta.c:207
     1d8:	b9000401 	str	w1, [x0, #4]
/home/atmark/workspace/optee/optee_server/ta/server_ta.c:208
     1dc:	f9400080 	ldr	x0, [x4]
     1e0:	f9400a81 	ldr	x1, [x20, #16]
     1e4:	f9400ca4 	ldr	x4, [x5, #24]
ta_entry_recv():
/home/atmark/workspace/optee/optee_server/ta/server_ta.c:231
     1e8:	aa0403f0 	mov	x16, x4
TA_InvokeCommandEntryPoint():
/home/atmark/workspace/optee/optee_server/ta/server_ta.c:377
     1ec:	a94153f3 	ldp	x19, x20, [sp, #16]
     1f0:	a9425bf5 	ldp	x21, x22, [sp, #32]
     1f4:	a8c67bfd 	ldp	x29, x30, [sp], #96
ta_entry_recv():
/home/atmark/workspace/optee/optee_server/ta/server_ta.c:231
     1f8:	d61f0200 	br	x16
TA_InvokeCommandEntryPoint():
/home/atmark/workspace/optee/optee_server/ta/server_ta.c:355
     1fc:	7100143f 	cmp	w1, #0x5
     200:	54000860 	b.eq	30c <TA_InvokeCommandEntryPoint+0x1f8>  // b.none
     204:	7100183f 	cmp	w1, #0x6
     208:	54000761 	b.ne	2f4 <TA_InvokeCommandEntryPoint+0x1e0>  // b.any
ta_entry_ioctl():
/home/atmark/workspace/optee/optee_server/ta/server_ta.c:267
     20c:	7105d45f 	cmp	w2, #0x175
     210:	540018c1 	b.ne	528 <TA_InvokeCommandEntryPoint+0x414>  // b.any
/home/atmark/workspace/optee/optee_server/ta/server_ta.c:273
     214:	b9400860 	ldr	w0, [x3, #8]
     218:	7100401f 	cmp	w0, #0x10
     21c:	540006c1 	b.ne	2f4 <TA_InvokeCommandEntryPoint+0x1e0>  // b.any
/home/atmark/workspace/optee/optee_server/ta/server_ta.c:277
     220:	b9402061 	ldr	w1, [x3, #32]
/home/atmark/workspace/optee/optee_server/ta/server_ta.c:276
     224:	f8418460 	ldr	x0, [x3], #24
/home/atmark/workspace/optee/optee_server/ta/server_ta.c:277
     228:	f9400a82 	ldr	x2, [x20, #16]
     22c:	f9400404 	ldr	x4, [x0, #8]
     230:	f9400000 	ldr	x0, [x0]
TA_InvokeCommandEntryPoint():
/home/atmark/workspace/optee/optee_server/ta/server_ta.c:377
     234:	a94153f3 	ldp	x19, x20, [sp, #16]
     238:	a9425bf5 	ldp	x21, x22, [sp, #32]
ta_entry_ioctl():
/home/atmark/workspace/optee/optee_server/ta/server_ta.c:277
     23c:	f9401884 	ldr	x4, [x4, #48]
TA_InvokeCommandEntryPoint():
/home/atmark/workspace/optee/optee_server/ta/server_ta.c:377
     240:	a8c67bfd 	ldp	x29, x30, [sp], #96
ta_entry_ioctl():
/home/atmark/workspace/optee/optee_server/ta/server_ta.c:277
     244:	aa0403f0 	mov	x16, x4
     248:	d61f0200 	br	x16
TA_InvokeCommandEntryPoint():
/home/atmark/workspace/optee/optee_server/ta/server_ta.c:355
     24c:	34000ce1 	cbz	w1, 3e8 <TA_InvokeCommandEntryPoint+0x2d4>
     250:	7100043f 	cmp	w1, #0x1
     254:	54000501 	b.ne	2f4 <TA_InvokeCommandEntryPoint+0x1e0>  // b.any
ta_entry_udp_open():
/home/atmark/workspace/optee/optee_server/ta/server_ta.c:131
     258:	a903ffff 	stp	xzr, xzr, [sp, #56]
/home/atmark/workspace/optee/optee_server/ta/server_ta.c:139
     25c:	5284ca26 	mov	w6, #0x2651                	// #9809
/home/atmark/workspace/optee/optee_server/ta/server_ta.c:132
     260:	a904ffff 	stp	xzr, xzr, [sp, #72]
     264:	f9002fff 	str	xzr, [sp, #88]
/home/atmark/workspace/optee/optee_server/ta/server_ta.c:139
     268:	6b06005f 	cmp	w2, w6
     26c:	54001461 	b.ne	4f8 <TA_InvokeCommandEntryPoint+0x3e4>  // b.any
/home/atmark/workspace/optee/optee_server/ta/server_ta.c:145
     270:	b9402860 	ldr	w0, [x3, #40]
     274:	91008073 	add	x19, x3, #0x20
     278:	71003c1f 	cmp	w0, #0xf
     27c:	540011c9 	b.ls	4b4 <TA_InvokeCommandEntryPoint+0x3a0>  // b.plast
/home/atmark/workspace/optee/optee_server/ta/server_ta.c:151
     280:	29400863 	ldp	w3, w2, [x3]
/home/atmark/workspace/optee/optee_server/ta/server_ta.c:150
     284:	b9004be3 	str	w3, [sp, #72]
/home/atmark/workspace/optee/optee_server/ta/server_ta.c:152
     288:	b9401a81 	ldr	w1, [x20, #24]
     28c:	f9400a80 	ldr	x0, [x20, #16]
/home/atmark/workspace/optee/optee_server/ta/server_ta.c:151
     290:	7900b3e2 	strh	w2, [sp, #88]
/home/atmark/workspace/optee/optee_server/ta/server_ta.c:152
     294:	940004cf 	bl	15d0 <strndup>
     298:	f9002be0 	str	x0, [sp, #80]
/home/atmark/workspace/optee/optee_server/ta/server_ta.c:154
     29c:	b4001f80 	cbz	x0, 68c <TA_InvokeCommandEntryPoint+0x578>
/home/atmark/workspace/optee/optee_server/ta/server_ta.c:157
     2a0:	b00000a1 	adrp	x1, 15000 <_DYNAMIC>
/home/atmark/workspace/optee/optee_server/ta/server_ta.c:158
     2a4:	9100e3f6 	add	x22, sp, #0x38
     2a8:	aa1603e0 	mov	x0, x22
     2ac:	9100c282 	add	x2, x20, #0x30
/home/atmark/workspace/optee/optee_server/ta/server_ta.c:157
     2b0:	f940bc23 	ldr	x3, [x1, #376]
/home/atmark/workspace/optee/optee_server/ta/server_ta.c:158
     2b4:	910123e1 	add	x1, sp, #0x48
/home/atmark/workspace/optee/optee_server/ta/server_ta.c:157
     2b8:	f9400063 	ldr	x3, [x3]
     2bc:	f90023e3 	str	x3, [sp, #64]
/home/atmark/workspace/optee/optee_server/ta/server_ta.c:158
     2c0:	f9400463 	ldr	x3, [x3, #8]
ta_entry_listen():
/home/atmark/workspace/optee/optee_server/ta/server_ta.c:312
     2c4:	d63f0060 	blr	x3
     2c8:	2a0003f5 	mov	w21, w0
/home/atmark/workspace/optee/optee_server/ta/server_ta.c:313
     2cc:	f9402be0 	ldr	x0, [sp, #80]
     2d0:	940003f4 	bl	12a0 <free>
/home/atmark/workspace/optee/optee_server/ta/server_ta.c:314
     2d4:	35000135 	cbnz	w21, 2f8 <TA_InvokeCommandEntryPoint+0x1e4>
/home/atmark/workspace/optee/optee_server/ta/server_ta.c:315
     2d8:	f9401280 	ldr	x0, [x20, #32]
     2dc:	aa1603e1 	mov	x1, x22
     2e0:	d2800214 	mov	x20, #0x10                  	// #16
     2e4:	aa1403e2 	mov	x2, x20
     2e8:	940004ce 	bl	1620 <memcpy>
/home/atmark/workspace/optee/optee_server/ta/server_ta.c:316
     2ec:	b9000a74 	str	w20, [x19, #8]
     2f0:	14000002 	b	2f8 <TA_InvokeCommandEntryPoint+0x1e4>
ta_entry_close():
/home/atmark/workspace/optee/optee_server/ta/server_ta.c:182
     2f4:	129fff35 	mov	w21, #0xffff0006            	// #-65530
TA_InvokeCommandEntryPoint():
/home/atmark/workspace/optee/optee_server/ta/server_ta.c:377
     2f8:	2a1503e0 	mov	w0, w21
     2fc:	a94153f3 	ldp	x19, x20, [sp, #16]
     300:	a9425bf5 	ldp	x21, x22, [sp, #32]
     304:	a8c67bfd 	ldp	x29, x30, [sp], #96
     308:	d65f03c0 	ret
ta_entry_error():
/home/atmark/workspace/optee/optee_server/ta/server_ta.c:244
     30c:	7100945f 	cmp	w2, #0x25
     310:	54001401 	b.ne	590 <TA_InvokeCommandEntryPoint+0x47c>  // b.any
/home/atmark/workspace/optee/optee_server/ta/server_ta.c:250
     314:	b9400860 	ldr	w0, [x3, #8]
ta_entry_close():
/home/atmark/workspace/optee/optee_server/ta/server_ta.c:182
     318:	129fff35 	mov	w21, #0xffff0006            	// #-65530
ta_entry_error():
/home/atmark/workspace/optee/optee_server/ta/server_ta.c:250
     31c:	7100401f 	cmp	w0, #0x10
     320:	54fffec1 	b.ne	2f8 <TA_InvokeCommandEntryPoint+0x1e4>  // b.any
/home/atmark/workspace/optee/optee_server/ta/server_ta.c:253
     324:	f9400060 	ldr	x0, [x3]
/home/atmark/workspace/optee/optee_server/ta/server_ta.c:255
     328:	52800015 	mov	w21, #0x0                   	// #0
/home/atmark/workspace/optee/optee_server/ta/server_ta.c:254
     32c:	f9400401 	ldr	x1, [x0, #8]
     330:	f9400000 	ldr	x0, [x0]
     334:	f9401421 	ldr	x1, [x1, #40]
     338:	d63f0020 	blr	x1
     33c:	b9001280 	str	w0, [x20, #16]
/home/atmark/workspace/optee/optee_server/ta/server_ta.c:255
     340:	17ffffee 	b	2f8 <TA_InvokeCommandEntryPoint+0x1e4>
ta_entry_recv():
/home/atmark/workspace/optee/optee_server/ta/server_ta.c:221
     344:	7105945f 	cmp	w2, #0x165
     348:	54001881 	b.ne	658 <TA_InvokeCommandEntryPoint+0x544>  // b.any
/home/atmark/workspace/optee/optee_server/ta/server_ta.c:227
     34c:	b9400860 	ldr	w0, [x3, #8]
     350:	7100401f 	cmp	w0, #0x10
     354:	54fffd01 	b.ne	2f4 <TA_InvokeCommandEntryPoint+0x1e0>  // b.any
/home/atmark/workspace/optee/optee_server/ta/server_ta.c:230
     358:	f9400060 	ldr	x0, [x3]
/home/atmark/workspace/optee/optee_server/ta/server_ta.c:231
     35c:	91006062 	add	x2, x3, #0x18
     360:	f9400861 	ldr	x1, [x3, #16]
     364:	f9400403 	ldr	x3, [x0, #8]
     368:	f9400000 	ldr	x0, [x0]
     36c:	f9401064 	ldr	x4, [x3, #32]
     370:	b9402283 	ldr	w3, [x20, #32]
     374:	17ffff9d 	b	1e8 <TA_InvokeCommandEntryPoint+0xd4>
ta_entry_listen():
/home/atmark/workspace/optee/optee_server/ta/server_ta.c:285
     378:	a903ffff 	stp	xzr, xzr, [sp, #56]
/home/atmark/workspace/optee/optee_server/ta/server_ta.c:293
     37c:	5284ca26 	mov	w6, #0x2651                	// #9809
/home/atmark/workspace/optee/optee_server/ta/server_ta.c:286
     380:	a904ffff 	stp	xzr, xzr, [sp, #72]
     384:	f9002fff 	str	xzr, [sp, #88]
/home/atmark/workspace/optee/optee_server/ta/server_ta.c:293
     388:	6b06005f 	cmp	w2, w6
     38c:	540014e1 	b.ne	628 <TA_InvokeCommandEntryPoint+0x514>  // b.any
/home/atmark/workspace/optee/optee_server/ta/server_ta.c:299
     390:	b9402860 	ldr	w0, [x3, #40]
     394:	91008073 	add	x19, x3, #0x20
     398:	71003c1f 	cmp	w0, #0xf
     39c:	540008c9 	b.ls	4b4 <TA_InvokeCommandEntryPoint+0x3a0>  // b.plast
/home/atmark/workspace/optee/optee_server/ta/server_ta.c:305
     3a0:	29400863 	ldp	w3, w2, [x3]
/home/atmark/workspace/optee/optee_server/ta/server_ta.c:304
     3a4:	b9004be3 	str	w3, [sp, #72]
/home/atmark/workspace/optee/optee_server/ta/server_ta.c:306
     3a8:	b9401a81 	ldr	w1, [x20, #24]
     3ac:	f9400a80 	ldr	x0, [x20, #16]
/home/atmark/workspace/optee/optee_server/ta/server_ta.c:305
     3b0:	7900b3e2 	strh	w2, [sp, #88]
/home/atmark/workspace/optee/optee_server/ta/server_ta.c:306
     3b4:	94000487 	bl	15d0 <strndup>
     3b8:	f9002be0 	str	x0, [sp, #80]
/home/atmark/workspace/optee/optee_server/ta/server_ta.c:308
     3bc:	b4001680 	cbz	x0, 68c <TA_InvokeCommandEntryPoint+0x578>
/home/atmark/workspace/optee/optee_server/ta/server_ta.c:311
     3c0:	b00000a1 	adrp	x1, 15000 <_DYNAMIC>
/home/atmark/workspace/optee/optee_server/ta/server_ta.c:312
     3c4:	9100e3f6 	add	x22, sp, #0x38
     3c8:	aa1603e0 	mov	x0, x22
     3cc:	9100c282 	add	x2, x20, #0x30
/home/atmark/workspace/optee/optee_server/ta/server_ta.c:311
     3d0:	f940b823 	ldr	x3, [x1, #368]
/home/atmark/workspace/optee/optee_server/ta/server_ta.c:312
     3d4:	910123e1 	add	x1, sp, #0x48
/home/atmark/workspace/optee/optee_server/ta/server_ta.c:311
     3d8:	f9400063 	ldr	x3, [x3]
     3dc:	f90023e3 	str	x3, [sp, #64]
/home/atmark/workspace/optee/optee_server/ta/server_ta.c:312
     3e0:	f9401c63 	ldr	x3, [x3, #56]
     3e4:	17ffffb8 	b	2c4 <TA_InvokeCommandEntryPoint+0x1b0>
ta_entry_tcp_open():
/home/atmark/workspace/optee/optee_server/ta/server_ta.c:91
     3e8:	a903ffff 	stp	xzr, xzr, [sp, #56]
/home/atmark/workspace/optee/optee_server/ta/server_ta.c:99
     3ec:	5284ca26 	mov	w6, #0x2651                	// #9809
/home/atmark/workspace/optee/optee_server/ta/server_ta.c:92
     3f0:	a904ffff 	stp	xzr, xzr, [sp, #72]
     3f4:	f9002fff 	str	xzr, [sp, #88]
/home/atmark/workspace/optee/optee_server/ta/server_ta.c:99
     3f8:	6b06005f 	cmp	w2, w6
     3fc:	54000fe1 	b.ne	5f8 <TA_InvokeCommandEntryPoint+0x4e4>  // b.any
/home/atmark/workspace/optee/optee_server/ta/server_ta.c:105
     400:	b9402860 	ldr	w0, [x3, #40]
     404:	91008073 	add	x19, x3, #0x20
     408:	71003c1f 	cmp	w0, #0xf
     40c:	54000549 	b.ls	4b4 <TA_InvokeCommandEntryPoint+0x3a0>  // b.plast
/home/atmark/workspace/optee/optee_server/ta/server_ta.c:111
     410:	29400863 	ldp	w3, w2, [x3]
/home/atmark/workspace/optee/optee_server/ta/server_ta.c:110
     414:	b9004be3 	str	w3, [sp, #72]
/home/atmark/workspace/optee/optee_server/ta/server_ta.c:112
     418:	b9401a81 	ldr	w1, [x20, #24]
     41c:	f9400a80 	ldr	x0, [x20, #16]
/home/atmark/workspace/optee/optee_server/ta/server_ta.c:111
     420:	7900b3e2 	strh	w2, [sp, #88]
/home/atmark/workspace/optee/optee_server/ta/server_ta.c:112
     424:	9400046b 	bl	15d0 <strndup>
     428:	f9002be0 	str	x0, [sp, #80]
/home/atmark/workspace/optee/optee_server/ta/server_ta.c:114
     42c:	b4001300 	cbz	x0, 68c <TA_InvokeCommandEntryPoint+0x578>
/home/atmark/workspace/optee/optee_server/ta/server_ta.c:117
     430:	f0000080 	adrp	x0, 13000 <__text_end+0x3174>
     434:	91166000 	add	x0, x0, #0x598
     438:	9101c000 	add	x0, x0, #0x70
     43c:	52800023 	mov	w3, #0x1                   	// #1
     440:	52800042 	mov	w2, #0x2                   	// #2
     444:	52800ea1 	mov	w1, #0x75                  	// #117
     448:	f0000084 	adrp	x4, 13000 <__text_end+0x3174>
     44c:	9115e084 	add	x4, x4, #0x578
     450:	940005b8 	bl	1b30 <trace_printf>
/home/atmark/workspace/optee/optee_server/ta/server_ta.c:119
     454:	9100e3f6 	add	x22, sp, #0x38
/home/atmark/workspace/optee/optee_server/ta/server_ta.c:118
     458:	b00000a1 	adrp	x1, 15000 <_DYNAMIC>
/home/atmark/workspace/optee/optee_server/ta/server_ta.c:119
     45c:	9100c282 	add	x2, x20, #0x30
     460:	aa1603e0 	mov	x0, x22
/home/atmark/workspace/optee/optee_server/ta/server_ta.c:118
     464:	f940b823 	ldr	x3, [x1, #368]
/home/atmark/workspace/optee/optee_server/ta/server_ta.c:119
     468:	910123e1 	add	x1, sp, #0x48
/home/atmark/workspace/optee/optee_server/ta/server_ta.c:118
     46c:	f9400063 	ldr	x3, [x3]
     470:	f90023e3 	str	x3, [sp, #64]
/home/atmark/workspace/optee/optee_server/ta/server_ta.c:119
     474:	f9400463 	ldr	x3, [x3, #8]
     478:	17ffff93 	b	2c4 <TA_InvokeCommandEntryPoint+0x1b0>
ta_entry_close():
/home/atmark/workspace/optee/optee_server/ta/server_ta.c:175
     47c:	7100145f 	cmp	w2, #0x5
     480:	54000a21 	b.ne	5c4 <TA_InvokeCommandEntryPoint+0x4b0>  // b.any
/home/atmark/workspace/optee/optee_server/ta/server_ta.c:181
     484:	b9400860 	ldr	w0, [x3, #8]
     488:	7100401f 	cmp	w0, #0x10
     48c:	54fff341 	b.ne	2f4 <TA_InvokeCommandEntryPoint+0x1e0>  // b.any
/home/atmark/workspace/optee/optee_server/ta/server_ta.c:184
     490:	f9400060 	ldr	x0, [x3]
TA_InvokeCommandEntryPoint():
/home/atmark/workspace/optee/optee_server/ta/server_ta.c:377
     494:	a94153f3 	ldp	x19, x20, [sp, #16]
ta_entry_close():
/home/atmark/workspace/optee/optee_server/ta/server_ta.c:185
     498:	f9400401 	ldr	x1, [x0, #8]
     49c:	f9400000 	ldr	x0, [x0]
     4a0:	f9400821 	ldr	x1, [x1, #16]
TA_InvokeCommandEntryPoint():
/home/atmark/workspace/optee/optee_server/ta/server_ta.c:377
     4a4:	a9425bf5 	ldp	x21, x22, [sp, #32]
ta_entry_close():
/home/atmark/workspace/optee/optee_server/ta/server_ta.c:185
     4a8:	aa0103f0 	mov	x16, x1
TA_InvokeCommandEntryPoint():
/home/atmark/workspace/optee/optee_server/ta/server_ta.c:377
     4ac:	a8c67bfd 	ldp	x29, x30, [sp], #96
ta_entry_close():
/home/atmark/workspace/optee/optee_server/ta/server_ta.c:185
     4b0:	d61f0200 	br	x16
ta_entry_listen():
/home/atmark/workspace/optee/optee_server/ta/server_ta.c:300
     4b4:	52800200 	mov	w0, #0x10                  	// #16
/home/atmark/workspace/optee/optee_server/ta/server_ta.c:301
     4b8:	129ffdf5 	mov	w21, #0xffff0010            	// #-65520
/home/atmark/workspace/optee/optee_server/ta/server_ta.c:300
     4bc:	b9000a60 	str	w0, [x19, #8]
/home/atmark/workspace/optee/optee_server/ta/server_ta.c:301
     4c0:	17ffff8e 	b	2f8 <TA_InvokeCommandEntryPoint+0x1e4>
ta_entry_send():
/home/atmark/workspace/optee/optee_server/ta/server_ta.c:198
     4c4:	f0000080 	adrp	x0, 13000 <__text_end+0x3174>
     4c8:	91166000 	add	x0, x0, #0x598
     4cc:	2a0203e5 	mov	w5, w2
     4d0:	9102c000 	add	x0, x0, #0xb0
     4d4:	f0000084 	adrp	x4, 13000 <__text_end+0x3174>
     4d8:	52806aa6 	mov	w6, #0x355                 	// #853
     4dc:	91154084 	add	x4, x4, #0x550
     4e0:	52800023 	mov	w3, #0x1                   	// #1
     4e4:	52800022 	mov	w2, #0x1                   	// #1
     4e8:	528018c1 	mov	w1, #0xc6                  	// #198
/home/atmark/workspace/optee/optee_server/ta/server_ta.c:200
     4ec:	129fff35 	mov	w21, #0xffff0006            	// #-65530
/home/atmark/workspace/optee/optee_server/ta/server_ta.c:198
     4f0:	94000590 	bl	1b30 <trace_printf>
/home/atmark/workspace/optee/optee_server/ta/server_ta.c:200
     4f4:	17ffff81 	b	2f8 <TA_InvokeCommandEntryPoint+0x1e4>
ta_entry_udp_open():
/home/atmark/workspace/optee/optee_server/ta/server_ta.c:140
     4f8:	f0000080 	adrp	x0, 13000 <__text_end+0x3174>
     4fc:	91166000 	add	x0, x0, #0x598
     500:	2a0203e5 	mov	w5, w2
     504:	2a0103e3 	mov	w3, w1
     508:	2a0103e2 	mov	w2, w1
     50c:	91022000 	add	x0, x0, #0x88
     510:	f0000084 	adrp	x4, 13000 <__text_end+0x3174>
     514:	52801181 	mov	w1, #0x8c                  	// #140
     518:	91154084 	add	x4, x4, #0x550
/home/atmark/workspace/optee/optee_server/ta/server_ta.c:142
     51c:	129fff35 	mov	w21, #0xffff0006            	// #-65530
/home/atmark/workspace/optee/optee_server/ta/server_ta.c:140
     520:	94000584 	bl	1b30 <trace_printf>
/home/atmark/workspace/optee/optee_server/ta/server_ta.c:142
     524:	17ffff75 	b	2f8 <TA_InvokeCommandEntryPoint+0x1e4>
ta_entry_ioctl():
/home/atmark/workspace/optee/optee_server/ta/server_ta.c:268
     528:	f0000080 	adrp	x0, 13000 <__text_end+0x3174>
     52c:	91166000 	add	x0, x0, #0x598
     530:	2a0203e5 	mov	w5, w2
     534:	91038000 	add	x0, x0, #0xe0
     538:	f0000084 	adrp	x4, 13000 <__text_end+0x3174>
     53c:	52802ea6 	mov	w6, #0x175                 	// #373
     540:	91154084 	add	x4, x4, #0x550
     544:	52800023 	mov	w3, #0x1                   	// #1
     548:	52800022 	mov	w2, #0x1                   	// #1
     54c:	52802181 	mov	w1, #0x10c                 	// #268
/home/atmark/workspace/optee/optee_server/ta/server_ta.c:270
     550:	129fff35 	mov	w21, #0xffff0006            	// #-65530
/home/atmark/workspace/optee/optee_server/ta/server_ta.c:268
     554:	94000577 	bl	1b30 <trace_printf>
/home/atmark/workspace/optee/optee_server/ta/server_ta.c:270
     558:	17ffff68 	b	2f8 <TA_InvokeCommandEntryPoint+0x1e4>
ta_entry_accept():
/home/atmark/workspace/optee/optee_server/ta/server_ta.c:332
     55c:	f0000080 	adrp	x0, 13000 <__text_end+0x3174>
     560:	91166000 	add	x0, x0, #0x598
     564:	2a0203e5 	mov	w5, w2
     568:	91040000 	add	x0, x0, #0x100
     56c:	f0000084 	adrp	x4, 13000 <__text_end+0x3174>
     570:	52800ca6 	mov	w6, #0x65                  	// #101
     574:	91154084 	add	x4, x4, #0x550
     578:	52800023 	mov	w3, #0x1                   	// #1
     57c:	52800022 	mov	w2, #0x1                   	// #1
     580:	52802981 	mov	w1, #0x14c                 	// #332
/home/atmark/workspace/optee/optee_server/ta/server_ta.c:334
     584:	129fff35 	mov	w21, #0xffff0006            	// #-65530
/home/atmark/workspace/optee/optee_server/ta/server_ta.c:332
     588:	9400056a 	bl	1b30 <trace_printf>
/home/atmark/workspace/optee/optee_server/ta/server_ta.c:334
     58c:	17ffff5b 	b	2f8 <TA_InvokeCommandEntryPoint+0x1e4>
ta_entry_error():
/home/atmark/workspace/optee/optee_server/ta/server_ta.c:245
     590:	f0000080 	adrp	x0, 13000 <__text_end+0x3174>
     594:	91166000 	add	x0, x0, #0x598
     598:	2a0203e5 	mov	w5, w2
     59c:	91034000 	add	x0, x0, #0xd0
     5a0:	f0000084 	adrp	x4, 13000 <__text_end+0x3174>
     5a4:	528004a6 	mov	w6, #0x25                  	// #37
     5a8:	91154084 	add	x4, x4, #0x550
     5ac:	52800023 	mov	w3, #0x1                   	// #1
     5b0:	52800022 	mov	w2, #0x1                   	// #1
     5b4:	52801ea1 	mov	w1, #0xf5                  	// #245
/home/atmark/workspace/optee/optee_server/ta/server_ta.c:247
     5b8:	129fff35 	mov	w21, #0xffff0006            	// #-65530
/home/atmark/workspace/optee/optee_server/ta/server_ta.c:245
     5bc:	9400055d 	bl	1b30 <trace_printf>
/home/atmark/workspace/optee/optee_server/ta/server_ta.c:247
     5c0:	17ffff4e 	b	2f8 <TA_InvokeCommandEntryPoint+0x1e4>
ta_entry_close():
/home/atmark/workspace/optee/optee_server/ta/server_ta.c:176
     5c4:	f0000080 	adrp	x0, 13000 <__text_end+0x3174>
     5c8:	91166000 	add	x0, x0, #0x598
     5cc:	2a0203e5 	mov	w5, w2
     5d0:	91028000 	add	x0, x0, #0xa0
     5d4:	f0000084 	adrp	x4, 13000 <__text_end+0x3174>
     5d8:	528000a6 	mov	w6, #0x5                   	// #5
     5dc:	91154084 	add	x4, x4, #0x550
     5e0:	52800023 	mov	w3, #0x1                   	// #1
     5e4:	52800022 	mov	w2, #0x1                   	// #1
     5e8:	52801601 	mov	w1, #0xb0                  	// #176
/home/atmark/workspace/optee/optee_server/ta/server_ta.c:178
     5ec:	129fff35 	mov	w21, #0xffff0006            	// #-65530
/home/atmark/workspace/optee/optee_server/ta/server_ta.c:176
     5f0:	94000550 	bl	1b30 <trace_printf>
/home/atmark/workspace/optee/optee_server/ta/server_ta.c:178
     5f4:	17ffff41 	b	2f8 <TA_InvokeCommandEntryPoint+0x1e4>
ta_entry_tcp_open():
/home/atmark/workspace/optee/optee_server/ta/server_ta.c:100
     5f8:	f0000080 	adrp	x0, 13000 <__text_end+0x3174>
     5fc:	91166000 	add	x0, x0, #0x598
     600:	2a0203e5 	mov	w5, w2
     604:	9101c000 	add	x0, x0, #0x70
     608:	f0000084 	adrp	x4, 13000 <__text_end+0x3174>
     60c:	52800023 	mov	w3, #0x1                   	// #1
     610:	91154084 	add	x4, x4, #0x550
     614:	52800022 	mov	w2, #0x1                   	// #1
     618:	52800c81 	mov	w1, #0x64                  	// #100
/home/atmark/workspace/optee/optee_server/ta/server_ta.c:102
     61c:	129fff35 	mov	w21, #0xffff0006            	// #-65530
/home/atmark/workspace/optee/optee_server/ta/server_ta.c:100
     620:	94000544 	bl	1b30 <trace_printf>
/home/atmark/workspace/optee/optee_server/ta/server_ta.c:102
     624:	17ffff35 	b	2f8 <TA_InvokeCommandEntryPoint+0x1e4>
ta_entry_listen():
/home/atmark/workspace/optee/optee_server/ta/server_ta.c:294
     628:	f0000080 	adrp	x0, 13000 <__text_end+0x3174>
     62c:	91166000 	add	x0, x0, #0x598
     630:	2a0203e5 	mov	w5, w2
     634:	9103c000 	add	x0, x0, #0xf0
     638:	f0000084 	adrp	x4, 13000 <__text_end+0x3174>
     63c:	52800023 	mov	w3, #0x1                   	// #1
     640:	91154084 	add	x4, x4, #0x550
     644:	52800022 	mov	w2, #0x1                   	// #1
     648:	528024c1 	mov	w1, #0x126                 	// #294
/home/atmark/workspace/optee/optee_server/ta/server_ta.c:296
     64c:	129fff35 	mov	w21, #0xffff0006            	// #-65530
/home/atmark/workspace/optee/optee_server/ta/server_ta.c:294
     650:	94000538 	bl	1b30 <trace_printf>
/home/atmark/workspace/optee/optee_server/ta/server_ta.c:296
     654:	17ffff29 	b	2f8 <TA_InvokeCommandEntryPoint+0x1e4>
ta_entry_recv():
/home/atmark/workspace/optee/optee_server/ta/server_ta.c:222
     658:	f0000080 	adrp	x0, 13000 <__text_end+0x3174>
     65c:	91166000 	add	x0, x0, #0x598
     660:	2a0203e5 	mov	w5, w2
     664:	91030000 	add	x0, x0, #0xc0
     668:	f0000084 	adrp	x4, 13000 <__text_end+0x3174>
     66c:	52802ca6 	mov	w6, #0x165                 	// #357
     670:	91154084 	add	x4, x4, #0x550
     674:	52800023 	mov	w3, #0x1                   	// #1
     678:	52800022 	mov	w2, #0x1                   	// #1
     67c:	52801bc1 	mov	w1, #0xde                  	// #222
/home/atmark/workspace/optee/optee_server/ta/server_ta.c:224
     680:	129fff35 	mov	w21, #0xffff0006            	// #-65530
/home/atmark/workspace/optee/optee_server/ta/server_ta.c:222
     684:	9400052b 	bl	1b30 <trace_printf>
/home/atmark/workspace/optee/optee_server/ta/server_ta.c:224
     688:	17ffff1c 	b	2f8 <TA_InvokeCommandEntryPoint+0x1e4>
ta_entry_listen():
/home/atmark/workspace/optee/optee_server/ta/server_ta.c:309
     68c:	129ffe75 	mov	w21, #0xffff000c            	// #-65524
TA_InvokeCommandEntryPoint():
/home/atmark/workspace/optee/optee_server/ta/server_ta.c:371
     690:	17ffff1a 	b	2f8 <TA_InvokeCommandEntryPoint+0x1e4>
	...

00000000000006a0 <__ta_entry>:
__ta_entry():
/home/atmark/optee-build/imx-boot/imx-optee-os/out/export-ta_arm64/src/user_ta_header.c:47
     6a0:	a9bf7bfd 	stp	x29, x30, [sp, #-16]!
     6a4:	910003fd 	mov	x29, sp
/home/atmark/optee-build/imx-boot/imx-optee-os/out/export-ta_arm64/src/user_ta_header.c:48
     6a8:	94001a43 	bl	6fb4 <__utee_entry>
/home/atmark/optee-build/imx-boot/imx-optee-os/out/export-ta_arm64/src/user_ta_header.c:59
     6ac:	2a0003e0 	mov	w0, w0
     6b0:	94003d47 	bl	fbcc <_utee_return>

00000000000006b4 <tahead_get_trace_level>:
tahead_get_trace_level():
/home/atmark/optee-build/imx-boot/imx-optee-os/out/export-ta_arm64/src/user_ta_header.c:149
     6b4:	52800080 	mov	w0, #0x4                   	// #4
     6b8:	d65f03c0 	ret
     6bc:	00000000 	udf	#0

00000000000006c0 <bget>:
bget():
/home/atmark/optee-build/imx-boot/imx-optee-os/lib/libutils/isoc/bget.c:612
     6c0:	a9bf7bfd 	stp	x29, x30, [sp, #-16]!
     6c4:	910003fd 	mov	x29, sp
/home/atmark/optee-build/imx-boot/imx-optee-os/lib/libutils/isoc/bget.c:625
     6c8:	f100005f 	cmp	x2, #0x0
     6cc:	54000d8d 	b.le	87c <bget+0x1bc>
/home/atmark/optee-build/imx-boot/imx-optee-os/lib/libutils/isoc/bget.c:628 (discriminator 2)
     6d0:	f100001f 	cmp	x0, #0x0
     6d4:	54000c2b 	b.lt	858 <bget+0x198>  // b.tstop
/home/atmark/optee-build/imx-boot/imx-optee-os/lib/libutils/isoc/bget.c:628 (discriminator 1)
     6d8:	54000ba1 	b.ne	84c <bget+0x18c>  // b.any
/home/atmark/optee-build/imx-boot/imx-optee-os/lib/libutils/isoc/bget.c:630
     6dc:	91004028 	add	x8, x1, #0x10
     6e0:	f2400c3f 	tst	x1, #0xf
     6e4:	54000ba1 	b.ne	858 <bget+0x198>  // b.any
/home/atmark/optee-build/imx-boot/imx-optee-os/lib/libutils/isoc/bget.c:640
     6e8:	f100405f 	cmp	x2, #0x10
     6ec:	d2800207 	mov	x7, #0x10                  	// #16
     6f0:	9a87a042 	csel	x2, x2, x7, ge  // ge = tcont
     6f4:	b1003c45 	adds	x5, x2, #0xf
     6f8:	54000b04 	b.mi	858 <bget+0x198>  // b.first
     6fc:	eb0200bf 	cmp	x5, x2
     700:	54000ac3 	b.cc	858 <bget+0x198>  // b.lo, b.ul, b.last
/home/atmark/optee-build/imx-boot/imx-optee-os/lib/libutils/isoc/bget.c:643
     704:	927ceca5 	and	x5, x5, #0xfffffffffffffff0
/home/atmark/optee-build/imx-boot/imx-optee-os/lib/libutils/isoc/bget.c:648
     708:	b10040a5 	adds	x5, x5, #0x10
     70c:	54000a66 	b.vs	858 <bget+0x198>
/home/atmark/optee-build/imx-boot/imx-optee-os/lib/libutils/isoc/bget.c:650
     710:	ab0100a5 	adds	x5, x5, x1
     714:	54000a26 	b.vs	858 <bget+0x198>
/home/atmark/optee-build/imx-boot/imx-optee-os/lib/libutils/isoc/bget.c:660
     718:	f9400864 	ldr	x4, [x3, #16]
/home/atmark/optee-build/imx-boot/imx-optee-os/lib/libutils/isoc/bget.c:684
     71c:	eb03009f 	cmp	x4, x3
     720:	540009c0 	b.eq	858 <bget+0x198>  // b.none
     724:	f100401f 	cmp	x0, #0x10
/home/atmark/optee-build/imx-boot/imx-optee-os/lib/libutils/isoc/bget.c:686
     728:	b27be7e9 	mov	x9, #0x7fffffffffffffe0    	// #9223372036854775776
     72c:	9a87a000 	csel	x0, x0, x7, ge  // ge = tcont
buf_get_pos():
/home/atmark/optee-build/imx-boot/imx-optee-os/lib/libutils/isoc/bget.c:594
     730:	cb0003e7 	neg	x7, x0
     734:	14000007 	b	750 <bget+0x90>
/home/atmark/optee-build/imx-boot/imx-optee-os/lib/libutils/isoc/bget.c:599
     738:	d100c000 	sub	x0, x0, #0x30
bget():
/home/atmark/optee-build/imx-boot/imx-optee-os/lib/libutils/isoc/bget.c:686
     73c:	eb09001f 	cmp	x0, x9
     740:	540009a3 	b.cc	874 <bget+0x1b4>  // b.lo, b.ul, b.last
/home/atmark/optee-build/imx-boot/imx-optee-os/lib/libutils/isoc/bget.c:759
     744:	f9400884 	ldr	x4, [x4, #16]
/home/atmark/optee-build/imx-boot/imx-optee-os/lib/libutils/isoc/bget.c:684
     748:	eb03009f 	cmp	x4, x3
     74c:	54000860 	b.eq	858 <bget+0x198>  // b.none
buf_get_pos():
/home/atmark/optee-build/imx-boot/imx-optee-os/lib/libutils/isoc/bget.c:585
     750:	f9400486 	ldr	x6, [x4, #8]
     754:	eb0600bf 	cmp	x5, x6
     758:	54ffff6c 	b.gt	744 <bget+0x84>
/home/atmark/optee-build/imx-boot/imx-optee-os/lib/libutils/isoc/bget.c:592
     75c:	cb050082 	sub	x2, x4, x5
/home/atmark/optee-build/imx-boot/imx-optee-os/lib/libutils/isoc/bget.c:595
     760:	8b010080 	add	x0, x4, x1
/home/atmark/optee-build/imx-boot/imx-optee-os/lib/libutils/isoc/bget.c:592
     764:	8b080042 	add	x2, x2, x8
     768:	8b060042 	add	x2, x2, x6
/home/atmark/optee-build/imx-boot/imx-optee-os/lib/libutils/isoc/bget.c:594
     76c:	8a0200e2 	and	x2, x7, x2
/home/atmark/optee-build/imx-boot/imx-optee-os/lib/libutils/isoc/bget.c:595
     770:	cb000040 	sub	x0, x2, x0
/home/atmark/optee-build/imx-boot/imx-optee-os/lib/libutils/isoc/bget.c:597
     774:	f1004002 	subs	x2, x0, #0x10
     778:	54fffe01 	b.ne	738 <bget+0x78>  // b.any
     77c:	aa0403e0 	mov	x0, x4
bget():
/home/atmark/optee-build/imx-boot/imx-optee-os/lib/libutils/isoc/bget.c:690
     780:	f8666881 	ldr	x1, [x4, x6]
/home/atmark/optee-build/imx-boot/imx-optee-os/lib/libutils/isoc/bget.c:688
     784:	8b060088 	add	x8, x4, x6
/home/atmark/optee-build/imx-boot/imx-optee-os/lib/libutils/isoc/bget.c:690
     788:	eb06003f 	cmp	x1, x6
     78c:	540008a1 	b.ne	8a0 <bget+0x1e0>  // b.any
/home/atmark/optee-build/imx-boot/imx-optee-os/lib/libutils/isoc/bget.c:698 (discriminator 2)
     790:	f9400c81 	ldr	x1, [x4, #24]
/home/atmark/optee-build/imx-boot/imx-optee-os/lib/libutils/isoc/bget.c:696 (discriminator 2)
     794:	f826689f 	str	xzr, [x4, x6]
/home/atmark/optee-build/imx-boot/imx-optee-os/lib/libutils/isoc/bget.c:698 (discriminator 2)
     798:	f9400827 	ldr	x7, [x1, #16]
     79c:	eb07009f 	cmp	x4, x7
     7a0:	54000a41 	b.ne	8e8 <bget+0x228>  // b.any
/home/atmark/optee-build/imx-boot/imx-optee-os/lib/libutils/isoc/bget.c:699 (discriminator 2)
     7a4:	f9400887 	ldr	x7, [x4, #16]
     7a8:	f9400ce9 	ldr	x9, [x7, #24]
     7ac:	eb09009f 	cmp	x4, x9
     7b0:	540008a1 	b.ne	8c4 <bget+0x204>  // b.any
/home/atmark/optee-build/imx-boot/imx-optee-os/lib/libutils/isoc/bget.c:701 (discriminator 2)
     7b4:	b5000582 	cbnz	x2, 864 <bget+0x1a4>
/home/atmark/optee-build/imx-boot/imx-optee-os/lib/libutils/isoc/bget.c:706
     7b8:	f9000827 	str	x7, [x1, #16]
/home/atmark/optee-build/imx-boot/imx-optee-os/lib/libutils/isoc/bget.c:710
     7bc:	cb0603e6 	neg	x6, x6
/home/atmark/optee-build/imx-boot/imx-optee-os/lib/libutils/isoc/bget.c:707
     7c0:	f9400882 	ldr	x2, [x4, #16]
     7c4:	f9000c41 	str	x1, [x2, #24]
/home/atmark/optee-build/imx-boot/imx-optee-os/lib/libutils/isoc/bget.c:710
     7c8:	f9000486 	str	x6, [x4, #8]
/home/atmark/optee-build/imx-boot/imx-optee-os/lib/libutils/isoc/bget.c:721
     7cc:	f9400401 	ldr	x1, [x0, #8]
     7d0:	b6f80d41 	tbz	x1, #63, 978 <bget+0x2b8>
/home/atmark/optee-build/imx-boot/imx-optee-os/lib/libutils/isoc/bget.c:727 (discriminator 2)
     7d4:	cb0103e1 	neg	x1, x1
     7d8:	cb050021 	sub	x1, x1, x5
     7dc:	f100803f 	cmp	x1, #0x20
     7e0:	54000309 	b.ls	840 <bget+0x180>  // b.plast
/home/atmark/optee-build/imx-boot/imx-optee-os/lib/libutils/isoc/bget.c:733
     7e4:	8b050002 	add	x2, x0, x5
/home/atmark/optee-build/imx-boot/imx-optee-os/lib/libutils/isoc/bget.c:738
     7e8:	f9400c66 	ldr	x6, [x3, #24]
/home/atmark/optee-build/imx-boot/imx-optee-os/lib/libutils/isoc/bget.c:734
     7ec:	f9000441 	str	x1, [x2, #8]
/home/atmark/optee-build/imx-boot/imx-optee-os/lib/libutils/isoc/bget.c:735
     7f0:	f825681f 	str	xzr, [x0, x5]
/home/atmark/optee-build/imx-boot/imx-optee-os/lib/libutils/isoc/bget.c:736
     7f4:	f9400404 	ldr	x4, [x0, #8]
/home/atmark/optee-build/imx-boot/imx-optee-os/lib/libutils/isoc/bget.c:738
     7f8:	f94008c5 	ldr	x5, [x6, #16]
/home/atmark/optee-build/imx-boot/imx-optee-os/lib/libutils/isoc/bget.c:736
     7fc:	8b010081 	add	x1, x4, x1
     800:	f9000401 	str	x1, [x0, #8]
/home/atmark/optee-build/imx-boot/imx-optee-os/lib/libutils/isoc/bget.c:738
     804:	eb0300bf 	cmp	x5, x3
     808:	54000a61 	b.ne	954 <bget+0x294>  // b.any
/home/atmark/optee-build/imx-boot/imx-optee-os/lib/libutils/isoc/bget.c:740 (discriminator 2)
     80c:	f9400861 	ldr	x1, [x3, #16]
     810:	f9400c21 	ldr	x1, [x1, #24]
     814:	eb03003f 	cmp	x1, x3
     818:	540008c1 	b.ne	930 <bget+0x270>  // b.any
/home/atmark/optee-build/imx-boot/imx-optee-os/lib/libutils/isoc/bget.c:743 (discriminator 2)
     81c:	a9011843 	stp	x3, x6, [x2, #16]
/home/atmark/optee-build/imx-boot/imx-optee-os/lib/libutils/isoc/bget.c:747 (discriminator 2)
     820:	f9400441 	ldr	x1, [x2, #8]
/home/atmark/optee-build/imx-boot/imx-optee-os/lib/libutils/isoc/bget.c:744 (discriminator 2)
     824:	f9000c62 	str	x2, [x3, #24]
/home/atmark/optee-build/imx-boot/imx-optee-os/lib/libutils/isoc/bget.c:745 (discriminator 2)
     828:	f9400c44 	ldr	x4, [x2, #24]
/home/atmark/optee-build/imx-boot/imx-optee-os/lib/libutils/isoc/bget.c:747 (discriminator 2)
     82c:	8b010043 	add	x3, x2, x1
/home/atmark/optee-build/imx-boot/imx-optee-os/lib/libutils/isoc/bget.c:745 (discriminator 2)
     830:	f9000882 	str	x2, [x4, #16]
/home/atmark/optee-build/imx-boot/imx-optee-os/lib/libutils/isoc/bget.c:747 (discriminator 2)
     834:	eb03011f 	cmp	x8, x3
     838:	540006a1 	b.ne	90c <bget+0x24c>  // b.any
/home/atmark/optee-build/imx-boot/imx-optee-os/lib/libutils/isoc/bget.c:748 (discriminator 2)
     83c:	f9000101 	str	x1, [x8]
/home/atmark/optee-build/imx-boot/imx-optee-os/lib/libutils/isoc/bget.c:755
     840:	91004000 	add	x0, x0, #0x10
/home/atmark/optee-build/imx-boot/imx-optee-os/lib/libutils/isoc/bget.c:839
     844:	a8c17bfd 	ldp	x29, x30, [sp], #16
     848:	d65f03c0 	ret
/home/atmark/optee-build/imx-boot/imx-optee-os/lib/libutils/isoc/bget.c:628 (discriminator 3)
     84c:	cb0003e4 	neg	x4, x0
     850:	ea24001f 	bics	xzr, x0, x4
     854:	54fff440 	b.eq	6dc <bget+0x1c>  // b.none
/home/atmark/optee-build/imx-boot/imx-optee-os/lib/libutils/isoc/bget.c:629
     858:	d2800000 	mov	x0, #0x0                   	// #0
/home/atmark/optee-build/imx-boot/imx-optee-os/lib/libutils/isoc/bget.c:839
     85c:	a8c17bfd 	ldp	x29, x30, [sp], #16
     860:	d65f03c0 	ret
/home/atmark/optee-build/imx-boot/imx-optee-os/lib/libutils/isoc/bget.c:716
     864:	cb060046 	sub	x6, x2, x6
     868:	a9001802 	stp	x2, x6, [x0]
/home/atmark/optee-build/imx-boot/imx-optee-os/lib/libutils/isoc/bget.c:718
     86c:	f9000482 	str	x2, [x4, #8]
     870:	17ffffd7 	b	7cc <bget+0x10c>
/home/atmark/optee-build/imx-boot/imx-optee-os/lib/libutils/isoc/bget.c:687
     874:	8b020080 	add	x0, x4, x2
     878:	17ffffc2 	b	780 <bget+0xc0>
/home/atmark/optee-build/imx-boot/imx-optee-os/lib/libutils/isoc/bget.c:625 (discriminator 1)
     87c:	f0000083 	adrp	x3, 13000 <__text_end+0x3174>
     880:	f0000081 	adrp	x1, 13000 <__text_end+0x3174>
     884:	912e8063 	add	x3, x3, #0xba0
     888:	91202021 	add	x1, x1, #0x808
     88c:	f0000080 	adrp	x0, 13000 <__text_end+0x3174>
     890:	9120a000 	add	x0, x0, #0x828
     894:	52804e22 	mov	w2, #0x271                 	// #625
     898:	94000936 	bl	2d70 <_assert_log>
     89c:	94000946 	bl	2db4 <_assert_break>
/home/atmark/optee-build/imx-boot/imx-optee-os/lib/libutils/isoc/bget.c:690 (discriminator 1)
     8a0:	f0000083 	adrp	x3, 13000 <__text_end+0x3174>
     8a4:	f0000081 	adrp	x1, 13000 <__text_end+0x3174>
     8a8:	912e8063 	add	x3, x3, #0xba0
     8ac:	91202021 	add	x1, x1, #0x808
     8b0:	f0000080 	adrp	x0, 13000 <__text_end+0x3174>
     8b4:	9120e000 	add	x0, x0, #0x838
     8b8:	52805642 	mov	w2, #0x2b2                 	// #690
     8bc:	9400092d 	bl	2d70 <_assert_log>
     8c0:	9400093d 	bl	2db4 <_assert_break>
/home/atmark/optee-build/imx-boot/imx-optee-os/lib/libutils/isoc/bget.c:699 (discriminator 1)
     8c4:	f0000083 	adrp	x3, 13000 <__text_end+0x3174>
     8c8:	f0000081 	adrp	x1, 13000 <__text_end+0x3174>
     8cc:	912e8063 	add	x3, x3, #0xba0
     8d0:	91202021 	add	x1, x1, #0x808
     8d4:	f0000080 	adrp	x0, 13000 <__text_end+0x3174>
     8d8:	9121e000 	add	x0, x0, #0x878
     8dc:	52805762 	mov	w2, #0x2bb                 	// #699
     8e0:	94000924 	bl	2d70 <_assert_log>
     8e4:	94000934 	bl	2db4 <_assert_break>
/home/atmark/optee-build/imx-boot/imx-optee-os/lib/libutils/isoc/bget.c:698 (discriminator 1)
     8e8:	f0000083 	adrp	x3, 13000 <__text_end+0x3174>
     8ec:	f0000081 	adrp	x1, 13000 <__text_end+0x3174>
     8f0:	912e8063 	add	x3, x3, #0xba0
     8f4:	91202021 	add	x1, x1, #0x808
     8f8:	f0000080 	adrp	x0, 13000 <__text_end+0x3174>
     8fc:	91216000 	add	x0, x0, #0x858
     900:	52805742 	mov	w2, #0x2ba                 	// #698
     904:	9400091b 	bl	2d70 <_assert_log>
     908:	9400092b 	bl	2db4 <_assert_break>
/home/atmark/optee-build/imx-boot/imx-optee-os/lib/libutils/isoc/bget.c:747 (discriminator 1)
     90c:	f0000083 	adrp	x3, 13000 <__text_end+0x3174>
     910:	f0000081 	adrp	x1, 13000 <__text_end+0x3174>
     914:	912e8063 	add	x3, x3, #0xba0
     918:	91202021 	add	x1, x1, #0x808
     91c:	f0000080 	adrp	x0, 13000 <__text_end+0x3174>
     920:	9124c000 	add	x0, x0, #0x930
     924:	52805d62 	mov	w2, #0x2eb                 	// #747
     928:	94000912 	bl	2d70 <_assert_log>
     92c:	94000922 	bl	2db4 <_assert_break>
/home/atmark/optee-build/imx-boot/imx-optee-os/lib/libutils/isoc/bget.c:740 (discriminator 1)
     930:	f0000083 	adrp	x3, 13000 <__text_end+0x3174>
     934:	f0000081 	adrp	x1, 13000 <__text_end+0x3174>
     938:	912e8063 	add	x3, x3, #0xba0
     93c:	91202021 	add	x1, x1, #0x808
     940:	f0000080 	adrp	x0, 13000 <__text_end+0x3174>
     944:	9123c000 	add	x0, x0, #0x8f0
     948:	52805c82 	mov	w2, #0x2e4                 	// #740
     94c:	94000909 	bl	2d70 <_assert_log>
     950:	94000919 	bl	2db4 <_assert_break>
/home/atmark/optee-build/imx-boot/imx-optee-os/lib/libutils/isoc/bget.c:738 (discriminator 1)
     954:	f0000083 	adrp	x3, 13000 <__text_end+0x3174>
     958:	f0000081 	adrp	x1, 13000 <__text_end+0x3174>
     95c:	912e8063 	add	x3, x3, #0xba0
     960:	91202021 	add	x1, x1, #0x808
     964:	f0000080 	adrp	x0, 13000 <__text_end+0x3174>
     968:	9122c000 	add	x0, x0, #0x8b0
     96c:	52805c42 	mov	w2, #0x2e2                 	// #738
     970:	94000900 	bl	2d70 <_assert_log>
     974:	94000910 	bl	2db4 <_assert_break>
/home/atmark/optee-build/imx-boot/imx-optee-os/lib/libutils/isoc/bget.c:721 (discriminator 1)
     978:	f0000083 	adrp	x3, 13000 <__text_end+0x3174>
     97c:	f0000081 	adrp	x1, 13000 <__text_end+0x3174>
     980:	912e8063 	add	x3, x3, #0xba0
     984:	91202021 	add	x1, x1, #0x808
     988:	f0000080 	adrp	x0, 13000 <__text_end+0x3174>
     98c:	91226000 	add	x0, x0, #0x898
     990:	52805a22 	mov	w2, #0x2d1                 	// #721
     994:	940008f7 	bl	2d70 <_assert_log>
     998:	94000907 	bl	2db4 <_assert_break>
     99c:	d503201f 	nop

00000000000009a0 <bgetz>:
bgetz():
/home/atmark/optee-build/imx-boot/imx-optee-os/lib/libutils/isoc/bget.c:850
     9a0:	a9be7bfd 	stp	x29, x30, [sp, #-32]!
     9a4:	910003fd 	mov	x29, sp
     9a8:	f9000bf3 	str	x19, [sp, #16]
     9ac:	aa0203f3 	mov	x19, x2
/home/atmark/optee-build/imx-boot/imx-optee-os/lib/libutils/isoc/bget.c:851
     9b0:	97ffff44 	bl	6c0 <bget>
     9b4:	aa0003e3 	mov	x3, x0
/home/atmark/optee-build/imx-boot/imx-optee-os/lib/libutils/isoc/bget.c:853
     9b8:	b4000180 	cbz	x0, 9e8 <bgetz+0x48>
/home/atmark/optee-build/imx-boot/imx-optee-os/lib/libutils/isoc/bget.c:858
     9bc:	f85f8002 	ldur	x2, [x0, #-8]
/home/atmark/optee-build/imx-boot/imx-optee-os/lib/libutils/isoc/bget.c:859
     9c0:	b40001c2 	cbz	x2, 9f8 <bgetz+0x58>
/home/atmark/optee-build/imx-boot/imx-optee-os/lib/libutils/isoc/bget.c:865
     9c4:	928001e0 	mov	x0, #0xfffffffffffffff0    	// #-16
     9c8:	cb020002 	sub	x2, x0, x2
/home/atmark/optee-build/imx-boot/imx-optee-os/lib/libutils/isoc/bget.c:867
     9cc:	eb13005f 	cmp	x2, x19
     9d0:	540001cb 	b.lt	a08 <bgetz+0x68>  // b.tstop
memset_unchecked():
/home/atmark/optee-build/imx-boot/imx-optee-os/lib/libutils/isoc/bget_malloc.c:132 (discriminator 2)
     9d4:	aa0303e0 	mov	x0, x3
     9d8:	93407c42 	sxtw	x2, w2
     9dc:	52800001 	mov	w1, #0x0                   	// #0
     9e0:	9400034c 	bl	1710 <memset>
     9e4:	aa0003e3 	mov	x3, x0
bgetz():
/home/atmark/optee-build/imx-boot/imx-optee-os/lib/libutils/isoc/bget.c:871
     9e8:	aa0303e0 	mov	x0, x3
     9ec:	f9400bf3 	ldr	x19, [sp, #16]
     9f0:	a8c27bfd 	ldp	x29, x30, [sp], #32
     9f4:	d65f03c0 	ret
/home/atmark/optee-build/imx-boot/imx-optee-os/lib/libutils/isoc/bget.c:863
     9f8:	a97e0800 	ldp	x0, x2, [x0, #-32]
     9fc:	d1008000 	sub	x0, x0, #0x20
     a00:	cb020002 	sub	x2, x0, x2
     a04:	17fffff2 	b	9cc <bgetz+0x2c>
/home/atmark/optee-build/imx-boot/imx-optee-os/lib/libutils/isoc/bget.c:867 (discriminator 1)
     a08:	f0000083 	adrp	x3, 13000 <__text_end+0x3174>
     a0c:	912e8063 	add	x3, x3, #0xba0
     a10:	91002063 	add	x3, x3, #0x8
     a14:	f0000081 	adrp	x1, 13000 <__text_end+0x3174>
     a18:	f0000080 	adrp	x0, 13000 <__text_end+0x3174>
     a1c:	91202021 	add	x1, x1, #0x808
     a20:	91256000 	add	x0, x0, #0x958
     a24:	52806c62 	mov	w2, #0x363                 	// #867
     a28:	940008d2 	bl	2d70 <_assert_log>
     a2c:	940008e2 	bl	2db4 <_assert_break>

0000000000000a30 <brel>:
brel():
/home/atmark/optee-build/imx-boot/imx-optee-os/lib/libutils/isoc/bget.c:925
     a30:	a9be7bfd 	stp	x29, x30, [sp, #-32]!
     a34:	910003fd 	mov	x29, sp
     a38:	a90153f3 	stp	x19, x20, [sp, #16]
/home/atmark/optee-build/imx-boot/imx-optee-os/lib/libutils/isoc/bget.c:933
     a3c:	b4000be0 	cbz	x0, bb8 <brel+0x188>
/home/atmark/optee-build/imx-boot/imx-optee-os/lib/libutils/isoc/bget.c:965 (discriminator 2)
     a40:	f85f8003 	ldur	x3, [x0, #-8]
/home/atmark/optee-build/imx-boot/imx-optee-os/lib/libutils/isoc/bget.c:968 (discriminator 2)
     a44:	d1004013 	sub	x19, x0, #0x10
     a48:	b6f80a43 	tbz	x3, #63, b90 <brel+0x160>
/home/atmark/optee-build/imx-boot/imx-optee-os/lib/libutils/isoc/bget.c:974 (discriminator 2)
     a4c:	cb030264 	sub	x4, x19, x3
     a50:	f9400084 	ldr	x4, [x4]
     a54:	b50008a4 	cbnz	x4, b68 <brel+0x138>
/home/atmark/optee-build/imx-boot/imx-optee-os/lib/libutils/isoc/bget.c:983 (discriminator 2)
     a58:	f85f0000 	ldur	x0, [x0, #-16]
     a5c:	b5000560 	cbnz	x0, b08 <brel+0xd8>
/home/atmark/optee-build/imx-boot/imx-optee-os/lib/libutils/isoc/bget.c:1002
     a60:	f9400c24 	ldr	x4, [x1, #24]
     a64:	f9400880 	ldr	x0, [x4, #16]
     a68:	eb01001f 	cmp	x0, x1
     a6c:	54000ba1 	b.ne	be0 <brel+0x1b0>  // b.any
/home/atmark/optee-build/imx-boot/imx-optee-os/lib/libutils/isoc/bget.c:1003 (discriminator 2)
     a70:	f9400801 	ldr	x1, [x0, #16]
     a74:	f9400c21 	ldr	x1, [x1, #24]
     a78:	eb01001f 	cmp	x0, x1
     a7c:	54000da1 	b.ne	c30 <brel+0x200>  // b.any
/home/atmark/optee-build/imx-boot/imx-optee-os/lib/libutils/isoc/bget.c:1005 (discriminator 2)
     a80:	a9011260 	stp	x0, x4, [x19, #16]
/home/atmark/optee-build/imx-boot/imx-optee-os/lib/libutils/isoc/bget.c:969 (discriminator 2)
     a84:	cb0303e3 	neg	x3, x3
/home/atmark/optee-build/imx-boot/imx-optee-os/lib/libutils/isoc/bget.c:1006 (discriminator 2)
     a88:	f9000c13 	str	x19, [x0, #24]
/home/atmark/optee-build/imx-boot/imx-optee-os/lib/libutils/isoc/bget.c:1007 (discriminator 2)
     a8c:	f9400e60 	ldr	x0, [x19, #24]
     a90:	f9000813 	str	x19, [x0, #16]
/home/atmark/optee-build/imx-boot/imx-optee-os/lib/libutils/isoc/bget.c:1008 (discriminator 2)
     a94:	f9000663 	str	x3, [x19, #8]
/home/atmark/optee-build/imx-boot/imx-optee-os/lib/libutils/isoc/bget.c:1016
     a98:	8b030274 	add	x20, x19, x3
/home/atmark/optee-build/imx-boot/imx-optee-os/lib/libutils/isoc/bget.c:1017
     a9c:	f9400680 	ldr	x0, [x20, #8]
     aa0:	f100001f 	cmp	x0, #0x0
     aa4:	5400022d 	b.le	ae8 <brel+0xb8>
/home/atmark/optee-build/imx-boot/imx-optee-os/lib/libutils/isoc/bget.c:1022
     aa8:	f8606a81 	ldr	x1, [x20, x0]
     aac:	eb01001f 	cmp	x0, x1
     ab0:	54000d41 	b.ne	c58 <brel+0x228>  // b.any
/home/atmark/optee-build/imx-boot/imx-optee-os/lib/libutils/isoc/bget.c:1023 (discriminator 2)
     ab4:	f9400e84 	ldr	x4, [x20, #24]
     ab8:	f9400885 	ldr	x5, [x4, #16]
     abc:	eb1400bf 	cmp	x5, x20
     ac0:	54000e01 	b.ne	c80 <brel+0x250>  // b.any
/home/atmark/optee-build/imx-boot/imx-optee-os/lib/libutils/isoc/bget.c:1024 (discriminator 2)
     ac4:	f94008a1 	ldr	x1, [x5, #16]
     ac8:	f9400c26 	ldr	x6, [x1, #24]
     acc:	eb0500df 	cmp	x6, x5
     ad0:	540009c1 	b.ne	c08 <brel+0x1d8>  // b.any
/home/atmark/optee-build/imx-boot/imx-optee-os/lib/libutils/isoc/bget.c:1027 (discriminator 2)
     ad4:	8b030003 	add	x3, x0, x3
/home/atmark/optee-build/imx-boot/imx-optee-os/lib/libutils/isoc/bget.c:1025 (discriminator 2)
     ad8:	f9000881 	str	x1, [x4, #16]
/home/atmark/optee-build/imx-boot/imx-optee-os/lib/libutils/isoc/bget.c:1036 (discriminator 2)
     adc:	8b030274 	add	x20, x19, x3
/home/atmark/optee-build/imx-boot/imx-optee-os/lib/libutils/isoc/bget.c:1026 (discriminator 2)
     ae0:	f9000c24 	str	x4, [x1, #24]
/home/atmark/optee-build/imx-boot/imx-optee-os/lib/libutils/isoc/bget.c:1027 (discriminator 2)
     ae4:	f9000663 	str	x3, [x19, #8]
/home/atmark/optee-build/imx-boot/imx-optee-os/lib/libutils/isoc/bget.c:1038
     ae8:	350001e2 	cbnz	w2, b24 <brel+0xf4>
/home/atmark/optee-build/imx-boot/imx-optee-os/lib/libutils/isoc/bget.c:1042
     aec:	f9400680 	ldr	x0, [x20, #8]
     af0:	b6f80280 	tbz	x0, #63, b40 <brel+0x110>
/home/atmark/optee-build/imx-boot/imx-optee-os/lib/libutils/isoc/bget.c:1047 (discriminator 2)
     af4:	f9400660 	ldr	x0, [x19, #8]
     af8:	f9000280 	str	x0, [x20]
/home/atmark/optee-build/imx-boot/imx-optee-os/lib/libutils/isoc/bget.c:1075 (discriminator 2)
     afc:	a94153f3 	ldp	x19, x20, [sp, #16]
     b00:	a8c27bfd 	ldp	x29, x30, [sp], #32
     b04:	d65f03c0 	ret
/home/atmark/optee-build/imx-boot/imx-optee-os/lib/libutils/isoc/bget.c:994
     b08:	cb000273 	sub	x19, x19, x0
     b0c:	f9400661 	ldr	x1, [x19, #8]
     b10:	eb01001f 	cmp	x0, x1
     b14:	54000ca1 	b.ne	ca8 <brel+0x278>  // b.any
/home/atmark/optee-build/imx-boot/imx-optee-os/lib/libutils/isoc/bget.c:996 (discriminator 2)
     b18:	cb030003 	sub	x3, x0, x3
     b1c:	f9000663 	str	x3, [x19, #8]
     b20:	17ffffde 	b	a98 <brel+0x68>
/home/atmark/optee-build/imx-boot/imx-optee-os/lib/libutils/isoc/bget.c:1040
     b24:	f9400662 	ldr	x2, [x19, #8]
memset_unchecked():
/home/atmark/optee-build/imx-boot/imx-optee-os/lib/libutils/isoc/bget_malloc.c:132
     b28:	91008260 	add	x0, x19, #0x20
     b2c:	52800aa1 	mov	w1, #0x55                  	// #85
brel():
/home/atmark/optee-build/imx-boot/imx-optee-os/lib/libutils/isoc/bget.c:1040
     b30:	51008042 	sub	w2, w2, #0x20
memset_unchecked():
/home/atmark/optee-build/imx-boot/imx-optee-os/lib/libutils/isoc/bget_malloc.c:132
     b34:	93407c42 	sxtw	x2, w2
     b38:	940002f6 	bl	1710 <memset>
     b3c:	17ffffec 	b	aec <brel+0xbc>
brel():
/home/atmark/optee-build/imx-boot/imx-optee-os/lib/libutils/isoc/bget.c:1042 (discriminator 1)
     b40:	f0000083 	adrp	x3, 13000 <__text_end+0x3174>
     b44:	912e8063 	add	x3, x3, #0xba0
     b48:	91004063 	add	x3, x3, #0x10
     b4c:	f0000081 	adrp	x1, 13000 <__text_end+0x3174>
     b50:	f0000080 	adrp	x0, 13000 <__text_end+0x3174>
     b54:	91202021 	add	x1, x1, #0x808
     b58:	9129e000 	add	x0, x0, #0xa78
     b5c:	52808242 	mov	w2, #0x412                 	// #1042
     b60:	94000884 	bl	2d70 <_assert_log>
     b64:	94000894 	bl	2db4 <_assert_break>
/home/atmark/optee-build/imx-boot/imx-optee-os/lib/libutils/isoc/bget.c:974 (discriminator 1)
     b68:	f0000083 	adrp	x3, 13000 <__text_end+0x3174>
     b6c:	912e8063 	add	x3, x3, #0xba0
     b70:	91004063 	add	x3, x3, #0x10
     b74:	f0000081 	adrp	x1, 13000 <__text_end+0x3174>
     b78:	f0000080 	adrp	x0, 13000 <__text_end+0x3174>
     b7c:	91202021 	add	x1, x1, #0x808
     b80:	91262000 	add	x0, x0, #0x988
     b84:	528079c2 	mov	w2, #0x3ce                 	// #974
     b88:	9400087a 	bl	2d70 <_assert_log>
     b8c:	9400088a 	bl	2db4 <_assert_break>
/home/atmark/optee-build/imx-boot/imx-optee-os/lib/libutils/isoc/bget.c:968 (discriminator 1)
     b90:	f0000083 	adrp	x3, 13000 <__text_end+0x3174>
     b94:	912e8063 	add	x3, x3, #0xba0
     b98:	91004063 	add	x3, x3, #0x10
     b9c:	f0000081 	adrp	x1, 13000 <__text_end+0x3174>
     ba0:	f0000080 	adrp	x0, 13000 <__text_end+0x3174>
     ba4:	91202021 	add	x1, x1, #0x808
     ba8:	9125e000 	add	x0, x0, #0x978
     bac:	52807902 	mov	w2, #0x3c8                 	// #968
     bb0:	94000870 	bl	2d70 <_assert_log>
     bb4:	94000880 	bl	2db4 <_assert_break>
/home/atmark/optee-build/imx-boot/imx-optee-os/lib/libutils/isoc/bget.c:933 (discriminator 1)
     bb8:	f0000083 	adrp	x3, 13000 <__text_end+0x3174>
     bbc:	912e8063 	add	x3, x3, #0xba0
     bc0:	91004063 	add	x3, x3, #0x10
     bc4:	f0000081 	adrp	x1, 13000 <__text_end+0x3174>
     bc8:	f0000080 	adrp	x0, 13000 <__text_end+0x3174>
     bcc:	91202021 	add	x1, x1, #0x808
     bd0:	9125a000 	add	x0, x0, #0x968
     bd4:	528074a2 	mov	w2, #0x3a5                 	// #933
     bd8:	94000866 	bl	2d70 <_assert_log>
     bdc:	94000876 	bl	2db4 <_assert_break>
/home/atmark/optee-build/imx-boot/imx-optee-os/lib/libutils/isoc/bget.c:1002 (discriminator 1)
     be0:	f0000083 	adrp	x3, 13000 <__text_end+0x3174>
     be4:	912e8063 	add	x3, x3, #0xba0
     be8:	91004063 	add	x3, x3, #0x10
     bec:	f0000081 	adrp	x1, 13000 <__text_end+0x3174>
     bf0:	f0000080 	adrp	x0, 13000 <__text_end+0x3174>
     bf4:	91202021 	add	x1, x1, #0x808
     bf8:	9122c000 	add	x0, x0, #0x8b0
     bfc:	52807d42 	mov	w2, #0x3ea                 	// #1002
     c00:	9400085c 	bl	2d70 <_assert_log>
     c04:	9400086c 	bl	2db4 <_assert_break>
/home/atmark/optee-build/imx-boot/imx-optee-os/lib/libutils/isoc/bget.c:1024 (discriminator 1)
     c08:	f0000083 	adrp	x3, 13000 <__text_end+0x3174>
     c0c:	912e8063 	add	x3, x3, #0xba0
     c10:	91004063 	add	x3, x3, #0x10
     c14:	f0000081 	adrp	x1, 13000 <__text_end+0x3174>
     c18:	f0000080 	adrp	x0, 13000 <__text_end+0x3174>
     c1c:	91202021 	add	x1, x1, #0x808
     c20:	91296000 	add	x0, x0, #0xa58
     c24:	52808002 	mov	w2, #0x400                 	// #1024
     c28:	94000852 	bl	2d70 <_assert_log>
     c2c:	94000862 	bl	2db4 <_assert_break>
/home/atmark/optee-build/imx-boot/imx-optee-os/lib/libutils/isoc/bget.c:1003 (discriminator 1)
     c30:	f0000083 	adrp	x3, 13000 <__text_end+0x3174>
     c34:	912e8063 	add	x3, x3, #0xba0
     c38:	91004063 	add	x3, x3, #0x10
     c3c:	f0000081 	adrp	x1, 13000 <__text_end+0x3174>
     c40:	f0000080 	adrp	x0, 13000 <__text_end+0x3174>
     c44:	91202021 	add	x1, x1, #0x808
     c48:	9123c000 	add	x0, x0, #0x8f0
     c4c:	52807d62 	mov	w2, #0x3eb                 	// #1003
     c50:	94000848 	bl	2d70 <_assert_log>
     c54:	94000858 	bl	2db4 <_assert_break>
/home/atmark/optee-build/imx-boot/imx-optee-os/lib/libutils/isoc/bget.c:1022 (discriminator 1)
     c58:	f0000083 	adrp	x3, 13000 <__text_end+0x3174>
     c5c:	912e8063 	add	x3, x3, #0xba0
     c60:	91004063 	add	x3, x3, #0x10
     c64:	f0000081 	adrp	x1, 13000 <__text_end+0x3174>
     c68:	f0000080 	adrp	x0, 13000 <__text_end+0x3174>
     c6c:	91202021 	add	x1, x1, #0x808
     c70:	9127e000 	add	x0, x0, #0x9f8
     c74:	52807fc2 	mov	w2, #0x3fe                 	// #1022
     c78:	9400083e 	bl	2d70 <_assert_log>
     c7c:	9400084e 	bl	2db4 <_assert_break>
/home/atmark/optee-build/imx-boot/imx-optee-os/lib/libutils/isoc/bget.c:1023 (discriminator 1)
     c80:	f0000083 	adrp	x3, 13000 <__text_end+0x3174>
     c84:	912e8063 	add	x3, x3, #0xba0
     c88:	91004063 	add	x3, x3, #0x10
     c8c:	f0000081 	adrp	x1, 13000 <__text_end+0x3174>
     c90:	f0000080 	adrp	x0, 13000 <__text_end+0x3174>
     c94:	91202021 	add	x1, x1, #0x808
     c98:	9128e000 	add	x0, x0, #0xa38
     c9c:	52807fe2 	mov	w2, #0x3ff                 	// #1023
     ca0:	94000834 	bl	2d70 <_assert_log>
     ca4:	94000844 	bl	2db4 <_assert_break>
/home/atmark/optee-build/imx-boot/imx-optee-os/lib/libutils/isoc/bget.c:994 (discriminator 1)
     ca8:	f0000083 	adrp	x3, 13000 <__text_end+0x3174>
     cac:	912e8063 	add	x3, x3, #0xba0
     cb0:	91004063 	add	x3, x3, #0x10
     cb4:	f0000081 	adrp	x1, 13000 <__text_end+0x3174>
     cb8:	f0000080 	adrp	x0, 13000 <__text_end+0x3174>
     cbc:	91202021 	add	x1, x1, #0x808
     cc0:	9126e000 	add	x0, x0, #0x9b8
     cc4:	52807c42 	mov	w2, #0x3e2                 	// #994
     cc8:	9400082a 	bl	2d70 <_assert_log>
     ccc:	9400083a 	bl	2db4 <_assert_break>

0000000000000cd0 <bgetr>:
bgetr():
/home/atmark/optee-build/imx-boot/imx-optee-os/lib/libutils/isoc/bget.c:884
     cd0:	a9bc7bfd 	stp	x29, x30, [sp, #-64]!
     cd4:	910003fd 	mov	x29, sp
     cd8:	a90153f3 	stp	x19, x20, [sp, #16]
     cdc:	aa0303f3 	mov	x19, x3
     ce0:	aa0003f4 	mov	x20, x0
/home/atmark/optee-build/imx-boot/imx-optee-os/lib/libutils/isoc/bget.c:889
     ce4:	aa0403e3 	mov	x3, x4
/home/atmark/optee-build/imx-boot/imx-optee-os/lib/libutils/isoc/bget.c:884
     ce8:	aa0103e0 	mov	x0, x1
/home/atmark/optee-build/imx-boot/imx-optee-os/lib/libutils/isoc/bget.c:889
     cec:	aa0203e1 	mov	x1, x2
     cf0:	aa1303e2 	mov	x2, x19
/home/atmark/optee-build/imx-boot/imx-optee-os/lib/libutils/isoc/bget.c:884
     cf4:	a9025bf5 	stp	x21, x22, [sp, #32]
     cf8:	f9001bf7 	str	x23, [sp, #48]
     cfc:	aa0403f7 	mov	x23, x4
/home/atmark/optee-build/imx-boot/imx-optee-os/lib/libutils/isoc/bget.c:889
     d00:	97fffe70 	bl	6c0 <bget>
     d04:	aa0003f6 	mov	x22, x0
     d08:	b4000260 	cbz	x0, d54 <bgetr+0x84>
/home/atmark/optee-build/imx-boot/imx-optee-os/lib/libutils/isoc/bget.c:892
     d0c:	b4000254 	cbz	x20, d54 <bgetr+0x84>
/home/atmark/optee-build/imx-boot/imx-optee-os/lib/libutils/isoc/bget.c:906
     d10:	f85f8281 	ldur	x1, [x20, #-8]
     d14:	928001f5 	mov	x21, #0xfffffffffffffff0    	// #-16
     d18:	cb0102b5 	sub	x21, x21, x1
/home/atmark/optee-build/imx-boot/imx-optee-os/lib/libutils/isoc/bget.c:907
     d1c:	f10002bf 	cmp	x21, #0x0
     d20:	5400030d 	b.le	d80 <bgetr+0xb0>
/home/atmark/optee-build/imx-boot/imx-optee-os/lib/libutils/isoc/bget.c:908 (discriminator 2)
     d24:	eb15027f 	cmp	x19, x21
     d28:	93407ea3 	sxtw	x3, w21
     d2c:	93407e62 	sxtw	x2, w19
     d30:	aa1403e1 	mov	x1, x20
     d34:	9a82a062 	csel	x2, x3, x2, ge  // ge = tcont
     d38:	9400023a 	bl	1620 <memcpy>
/home/atmark/optee-build/imx-boot/imx-optee-os/lib/libutils/isoc/bget.c:912 (discriminator 2)
     d3c:	eb15027f 	cmp	x19, x21
     d40:	5400016c 	b.gt	d6c <bgetr+0x9c>
/home/atmark/optee-build/imx-boot/imx-optee-os/lib/libutils/isoc/bget.c:915
     d44:	aa1703e1 	mov	x1, x23
     d48:	aa1403e0 	mov	x0, x20
     d4c:	52800002 	mov	w2, #0x0                   	// #0
     d50:	97ffff38 	bl	a30 <brel>
/home/atmark/optee-build/imx-boot/imx-optee-os/lib/libutils/isoc/bget.c:917
     d54:	aa1603e0 	mov	x0, x22
     d58:	a94153f3 	ldp	x19, x20, [sp, #16]
     d5c:	a9425bf5 	ldp	x21, x22, [sp, #32]
     d60:	f9401bf7 	ldr	x23, [sp, #48]
     d64:	a8c47bfd 	ldp	x29, x30, [sp], #64
     d68:	d65f03c0 	ret
/home/atmark/optee-build/imx-boot/imx-optee-os/lib/libutils/isoc/bget.c:913
     d6c:	cb150262 	sub	x2, x19, x21
     d70:	8b1502c0 	add	x0, x22, x21
     d74:	52800001 	mov	w1, #0x0                   	// #0
     d78:	94000266 	bl	1710 <memset>
     d7c:	17fffff2 	b	d44 <bgetr+0x74>
/home/atmark/optee-build/imx-boot/imx-optee-os/lib/libutils/isoc/bget.c:907 (discriminator 1)
     d80:	f0000083 	adrp	x3, 13000 <__text_end+0x3174>
     d84:	912e8063 	add	x3, x3, #0xba0
     d88:	91006063 	add	x3, x3, #0x18
     d8c:	f0000081 	adrp	x1, 13000 <__text_end+0x3174>
     d90:	f0000080 	adrp	x0, 13000 <__text_end+0x3174>
     d94:	91202021 	add	x1, x1, #0x808
     d98:	912a4000 	add	x0, x0, #0xa90
     d9c:	52807162 	mov	w2, #0x38b                 	// #907
     da0:	940007f4 	bl	2d70 <_assert_log>
     da4:	94000804 	bl	2db4 <_assert_break>
     da8:	d503201f 	nop
     dac:	d503201f 	nop

0000000000000db0 <bpool>:
bpool():
/home/atmark/optee-build/imx-boot/imx-optee-os/lib/libutils/isoc/bget.c:1101
     db0:	a9be7bfd 	stp	x29, x30, [sp, #-32]!
/home/atmark/optee-build/imx-boot/imx-optee-os/lib/libutils/isoc/bget.c:1106
     db4:	927cec21 	and	x1, x1, #0xfffffffffffffff0
/home/atmark/optee-build/imx-boot/imx-optee-os/lib/libutils/isoc/bget.c:1125
     db8:	f1004021 	subs	x1, x1, #0x10
/home/atmark/optee-build/imx-boot/imx-optee-os/lib/libutils/isoc/bget.c:1101
     dbc:	910003fd 	mov	x29, sp
     dc0:	f9000fe2 	str	x2, [sp, #24]
/home/atmark/optee-build/imx-boot/imx-optee-os/lib/libutils/isoc/bget.c:1125
     dc4:	540002c4 	b.mi	e1c <bpool+0x6c>  // b.first
/home/atmark/optee-build/imx-boot/imx-optee-os/lib/libutils/isoc/bget.c:1135 (discriminator 2)
     dc8:	f9400c44 	ldr	x4, [x2, #24]
     dcc:	aa0203e3 	mov	x3, x2
     dd0:	f9400882 	ldr	x2, [x4, #16]
/home/atmark/optee-build/imx-boot/imx-optee-os/lib/libutils/isoc/bget.c:1131 (discriminator 2)
     dd4:	f900001f 	str	xzr, [x0]
/home/atmark/optee-build/imx-boot/imx-optee-os/lib/libutils/isoc/bget.c:1135 (discriminator 2)
     dd8:	eb03005f 	cmp	x2, x3
     ddc:	54000481 	b.ne	e6c <bpool+0xbc>  // b.any
/home/atmark/optee-build/imx-boot/imx-optee-os/lib/libutils/isoc/bget.c:1136 (discriminator 2)
     de0:	f9400843 	ldr	x3, [x2, #16]
     de4:	f9400c63 	ldr	x3, [x3, #24]
     de8:	eb03005f 	cmp	x2, x3
     dec:	540002c1 	b.ne	e44 <bpool+0x94>  // b.any
/home/atmark/optee-build/imx-boot/imx-optee-os/lib/libutils/isoc/bget.c:1138 (discriminator 2)
     df0:	a9011002 	stp	x2, x4, [x0, #16]
/home/atmark/optee-build/imx-boot/imx-optee-os/lib/libutils/isoc/bget.c:1156 (discriminator 2)
     df4:	8b010003 	add	x3, x0, x1
/home/atmark/optee-build/imx-boot/imx-optee-os/lib/libutils/isoc/bget.c:1160 (discriminator 2)
     df8:	d2f00004 	mov	x4, #0x8000000000000000    	// #-9223372036854775808
/home/atmark/optee-build/imx-boot/imx-optee-os/lib/libutils/isoc/bget.c:1139 (discriminator 2)
     dfc:	f9000c40 	str	x0, [x2, #24]
/home/atmark/optee-build/imx-boot/imx-optee-os/lib/libutils/isoc/bget.c:1140 (discriminator 2)
     e00:	f9400c02 	ldr	x2, [x0, #24]
     e04:	f9000840 	str	x0, [x2, #16]
/home/atmark/optee-build/imx-boot/imx-optee-os/lib/libutils/isoc/bget.c:1151 (discriminator 2)
     e08:	f9000401 	str	x1, [x0, #8]
/home/atmark/optee-build/imx-boot/imx-optee-os/lib/libutils/isoc/bget.c:1157 (discriminator 2)
     e0c:	f8216801 	str	x1, [x0, x1]
/home/atmark/optee-build/imx-boot/imx-optee-os/lib/libutils/isoc/bget.c:1160 (discriminator 2)
     e10:	f9000464 	str	x4, [x3, #8]
/home/atmark/optee-build/imx-boot/imx-optee-os/lib/libutils/isoc/bget.c:1161 (discriminator 2)
     e14:	a8c27bfd 	ldp	x29, x30, [sp], #32
     e18:	d65f03c0 	ret
/home/atmark/optee-build/imx-boot/imx-optee-os/lib/libutils/isoc/bget.c:1125 (discriminator 1)
     e1c:	f0000083 	adrp	x3, 13000 <__text_end+0x3174>
     e20:	912e8063 	add	x3, x3, #0xba0
     e24:	91008063 	add	x3, x3, #0x20
     e28:	f0000081 	adrp	x1, 13000 <__text_end+0x3174>
     e2c:	f0000080 	adrp	x0, 13000 <__text_end+0x3174>
     e30:	91202021 	add	x1, x1, #0x808
     e34:	912a8000 	add	x0, x0, #0xaa0
     e38:	52808ca2 	mov	w2, #0x465                 	// #1125
     e3c:	940007cd 	bl	2d70 <_assert_log>
     e40:	940007dd 	bl	2db4 <_assert_break>
/home/atmark/optee-build/imx-boot/imx-optee-os/lib/libutils/isoc/bget.c:1136 (discriminator 1)
     e44:	f0000083 	adrp	x3, 13000 <__text_end+0x3174>
     e48:	912e8063 	add	x3, x3, #0xba0
     e4c:	91008063 	add	x3, x3, #0x20
     e50:	f0000081 	adrp	x1, 13000 <__text_end+0x3174>
     e54:	f0000080 	adrp	x0, 13000 <__text_end+0x3174>
     e58:	91202021 	add	x1, x1, #0x808
     e5c:	9123c000 	add	x0, x0, #0x8f0
     e60:	52808e02 	mov	w2, #0x470                 	// #1136
     e64:	940007c3 	bl	2d70 <_assert_log>
     e68:	940007d3 	bl	2db4 <_assert_break>
/home/atmark/optee-build/imx-boot/imx-optee-os/lib/libutils/isoc/bget.c:1135 (discriminator 1)
     e6c:	f0000083 	adrp	x3, 13000 <__text_end+0x3174>
     e70:	912e8063 	add	x3, x3, #0xba0
     e74:	91008063 	add	x3, x3, #0x20
     e78:	f0000081 	adrp	x1, 13000 <__text_end+0x3174>
     e7c:	f0000080 	adrp	x0, 13000 <__text_end+0x3174>
     e80:	91202021 	add	x1, x1, #0x808
     e84:	9122c000 	add	x0, x0, #0x8b0
     e88:	52808de2 	mov	w2, #0x46f                 	// #1135
     e8c:	940007b9 	bl	2d70 <_assert_log>
     e90:	940007c9 	bl	2db4 <_assert_break>

0000000000000e94 <bget_main_test>:
bget_main_test():
/home/atmark/optee-build/imx-boot/imx-optee-os/lib/libutils/isoc/bget.c:1570
     e94:	a9b97bfd 	stp	x29, x30, [sp, #-112]!
mysrand():
/home/atmark/optee-build/imx-boot/imx-optee-os/lib/libutils/isoc/bget.c:1420
     e98:	d2809a42 	mov	x2, #0x4d2                 	// #1234
bget_main_test():
/home/atmark/optee-build/imx-boot/imx-optee-os/lib/libutils/isoc/bget.c:1570
     e9c:	aa0003e1 	mov	x1, x0
     ea0:	910003fd 	mov	x29, sp
     ea4:	a90153f3 	stp	x19, x20, [sp, #16]
mysrand():
/home/atmark/optee-build/imx-boot/imx-optee-os/lib/libutils/isoc/bget.c:1420
     ea8:	b00000b3 	adrp	x19, 15000 <_DYNAMIC>
bget_main_test():
/home/atmark/optee-build/imx-boot/imx-optee-os/lib/libutils/isoc/bget.c:1601
     eac:	d2986a00 	mov	x0, #0xc350                	// #50000
/home/atmark/optee-build/imx-boot/imx-optee-os/lib/libutils/isoc/bget.c:1570
     eb0:	a9025bf5 	stp	x21, x22, [sp, #32]
     eb4:	a90363f7 	stp	x23, x24, [sp, #48]
     eb8:	a9046bf9 	stp	x25, x26, [sp, #64]
     ebc:	a90573fb 	stp	x27, x28, [sp, #80]
mysrand():
/home/atmark/optee-build/imx-boot/imx-optee-os/lib/libutils/isoc/bget.c:1420
     ec0:	f9021662 	str	x2, [x19, #1064]
bget_main_test():
/home/atmark/optee-build/imx-boot/imx-optee-os/lib/libutils/isoc/bget.c:1601
     ec4:	d63f0020 	blr	x1
/home/atmark/optee-build/imx-boot/imx-optee-os/lib/libutils/isoc/bget.c:1602
     ec8:	b4001560 	cbz	x0, 1174 <bget_main_test+0x2e0>
/home/atmark/optee-build/imx-boot/imx-optee-os/lib/libutils/isoc/bget.c:1603 (discriminator 2)
     ecc:	f0000099 	adrp	x25, 13000 <__text_end+0x3174>
     ed0:	912e8339 	add	x25, x25, #0xba0
myrand():
/home/atmark/optee-build/imx-boot/imx-optee-os/lib/libutils/isoc/bget.c:1412 (discriminator 2)
     ed4:	d289cdb5 	mov	x21, #0x4e6d                	// #20077
     ed8:	9100e339 	add	x25, x25, #0x38
bget_main_test():
/home/atmark/optee-build/imx-boot/imx-optee-os/lib/libutils/isoc/bget.c:1603 (discriminator 2)
     edc:	5289c417 	mov	w23, #0x4e20                	// #20000
myrand():
/home/atmark/optee-build/imx-boot/imx-optee-os/lib/libutils/isoc/bget.c:1412 (discriminator 2)
     ee0:	f2a838d5 	movk	x21, #0x41c6, lsl #16
     ee4:	d2860734 	mov	x20, #0x3039                	// #12345
bget_main_test():
/home/atmark/optee-build/imx-boot/imx-optee-os/lib/libutils/isoc/bget.c:1603 (discriminator 2)
     ee8:	b00000b8 	adrp	x24, 15000 <_DYNAMIC>
     eec:	d2986a01 	mov	x1, #0xc350                	// #50000
     ef0:	9110c302 	add	x2, x24, #0x430
     ef4:	97ffffaf 	bl	db0 <bpool>
myrand():
/home/atmark/optee-build/imx-boot/imx-optee-os/lib/libutils/isoc/bget.c:1412
     ef8:	f9421660 	ldr	x0, [x19, #1064]
bget_main_test():
/home/atmark/optee-build/imx-boot/imx-optee-os/lib/libutils/isoc/bget.c:1624
     efc:	d2800016 	mov	x22, #0x0                   	// #0
myrand():
/home/atmark/optee-build/imx-boot/imx-optee-os/lib/libutils/isoc/bget.c:1412
     f00:	9b155000 	madd	x0, x0, x21, x20
/home/atmark/optee-build/imx-boot/imx-optee-os/lib/libutils/isoc/bget.c:1413
     f04:	5310781a 	ubfx	w26, w0, #16, #15
/home/atmark/optee-build/imx-boot/imx-optee-os/lib/libutils/isoc/bget.c:1412
     f08:	9b155000 	madd	x0, x0, x21, x20
     f0c:	f9021660 	str	x0, [x19, #1064]
bget_main_test():
/home/atmark/optee-build/imx-boot/imx-optee-os/lib/libutils/isoc/bget.c:1619
     f10:	53104800 	ubfx	w0, w0, #16, #3
     f14:	1ac02b5a 	asr	w26, w26, w0
/home/atmark/optee-build/imx-boot/imx-optee-os/lib/libutils/isoc/bget.c:1624
     f18:	9400146f 	bl	60d4 <rand>
     f1c:	12000400 	and	w0, w0, #0x3
     f20:	51000400 	sub	w0, w0, #0x1
     f24:	7100081f 	cmp	w0, #0x2
     f28:	54000048 	b.hi	f30 <bget_main_test+0x9c>  // b.pmore
     f2c:	f8605b36 	ldr	x22, [x25, w0, uxtw #3]
/home/atmark/optee-build/imx-boot/imx-optee-os/lib/libutils/isoc/bget.c:1638
     f30:	94001469 	bl	60d4 <rand>
myrand():
/home/atmark/optee-build/imx-boot/imx-optee-os/lib/libutils/isoc/bget.c:1412
     f34:	f9421663 	ldr	x3, [x19, #1064]
     f38:	7100235f 	cmp	w26, #0x8
     f3c:	52800102 	mov	w2, #0x8                   	// #8
     f40:	1a82a35a 	csel	w26, w26, w2, ge  // ge = tcont
bget_main_test():
/home/atmark/optee-build/imx-boot/imx-optee-os/lib/libutils/isoc/bget.c:1638
     f44:	d37c041b 	ubfiz	x27, x0, #4, #2
myrand():
/home/atmark/optee-build/imx-boot/imx-optee-os/lib/libutils/isoc/bget.c:1412
     f48:	9b155063 	madd	x3, x3, x21, x20
     f4c:	93407f42 	sxtw	x2, w26
     f50:	f9021663 	str	x3, [x19, #1064]
bget_main_test():
/home/atmark/optee-build/imx-boot/imx-optee-os/lib/libutils/isoc/bget.c:1642
     f54:	36d00583 	tbz	w3, #26, 1004 <bget_main_test+0x170>
/home/atmark/optee-build/imx-boot/imx-optee-os/lib/libutils/isoc/bget.c:1643
     f58:	9110c303 	add	x3, x24, #0x430
     f5c:	aa1b03e1 	mov	x1, x27
     f60:	aa1603e0 	mov	x0, x22
     f64:	97fffe8f 	bl	9a0 <bgetz>
/home/atmark/optee-build/imx-boot/imx-optee-os/lib/libutils/isoc/bget.c:1647
     f68:	b4000580 	cbz	x0, 1018 <bget_main_test+0x184>
/home/atmark/optee-build/imx-boot/imx-optee-os/lib/libutils/isoc/bget.c:1665
     f6c:	b40000b6 	cbz	x22, f80 <bget_main_test+0xec>
/home/atmark/optee-build/imx-boot/imx-optee-os/lib/libutils/isoc/bget.c:1665 (discriminator 1)
     f70:	8b1b0001 	add	x1, x0, x27
     f74:	d10006c2 	sub	x2, x22, #0x1
     f78:	ea02003f 	tst	x1, x2
     f7c:	54000e81 	b.ne	114c <bget_main_test+0x2b8>  // b.any
myrand():
/home/atmark/optee-build/imx-boot/imx-optee-os/lib/libutils/isoc/bget.c:1412 (discriminator 4)
     f80:	f9421661 	ldr	x1, [x19, #1064]
bget_main_test():
/home/atmark/optee-build/imx-boot/imx-optee-os/lib/libutils/isoc/bget.c:1666 (discriminator 4)
     f84:	b00000fc 	adrp	x28, 1d000 <ta_heap+0x7ab0>
     f88:	f942ab84 	ldr	x4, [x28, #1360]
myrand():
/home/atmark/optee-build/imx-boot/imx-optee-os/lib/libutils/isoc/bget.c:1412 (discriminator 4)
     f8c:	9b155021 	madd	x1, x1, x21, x20
bget_main_test():
/home/atmark/optee-build/imx-boot/imx-optee-os/lib/libutils/isoc/bget.c:1667 (discriminator 4)
     f90:	f902ab80 	str	x0, [x28, #1360]
/home/atmark/optee-build/imx-boot/imx-optee-os/lib/libutils/isoc/bget.c:1666 (discriminator 4)
     f94:	f9000004 	str	x4, [x0]
myrand():
/home/atmark/optee-build/imx-boot/imx-optee-os/lib/libutils/isoc/bget.c:1412 (discriminator 4)
     f98:	9b155022 	madd	x2, x1, x21, x20
/home/atmark/optee-build/imx-boot/imx-optee-os/lib/libutils/isoc/bget.c:1413 (discriminator 4)
     f9c:	d350fc43 	lsr	x3, x2, #16
     fa0:	2a0303e5 	mov	w5, w3
bget_main_test():
/home/atmark/optee-build/imx-boot/imx-optee-os/lib/libutils/isoc/bget.c:1672 (discriminator 4)
     fa4:	36a00a21 	tbz	w1, #20, 10e8 <bget_main_test+0x254>
myrand():
/home/atmark/optee-build/imx-boot/imx-optee-os/lib/libutils/isoc/bget.c:1412
     fa8:	f9021662 	str	x2, [x19, #1064]
bget_main_test():
/home/atmark/optee-build/imx-boot/imx-optee-os/lib/libutils/isoc/bget.c:1694
     fac:	362804c5 	tbz	w5, #5, 1044 <bget_main_test+0x1b0>
/home/atmark/optee-build/imx-boot/imx-optee-os/lib/libutils/isoc/bget.c:1614 (discriminator 2)
     fb0:	710006f7 	subs	w23, w23, #0x1
     fb4:	54fffa21 	b.ne	ef8 <bget_main_test+0x64>  // b.any
/home/atmark/optee-build/imx-boot/imx-optee-os/lib/libutils/isoc/bget.c:1741
     fb8:	f942ab80 	ldr	x0, [x28, #1360]
/home/atmark/optee-build/imx-boot/imx-optee-os/lib/libutils/isoc/bget.c:1745
     fbc:	9110c318 	add	x24, x24, #0x430
/home/atmark/optee-build/imx-boot/imx-optee-os/lib/libutils/isoc/bget.c:1741
     fc0:	b4000120 	cbz	x0, fe4 <bget_main_test+0x150>
     fc4:	d503201f 	nop
/home/atmark/optee-build/imx-boot/imx-optee-os/lib/libutils/isoc/bget.c:1744
     fc8:	f9400001 	ldr	x1, [x0]
     fcc:	f902ab81 	str	x1, [x28, #1360]
/home/atmark/optee-build/imx-boot/imx-optee-os/lib/libutils/isoc/bget.c:1745
     fd0:	52800022 	mov	w2, #0x1                   	// #1
     fd4:	aa1803e1 	mov	x1, x24
     fd8:	97fffe96 	bl	a30 <brel>
/home/atmark/optee-build/imx-boot/imx-optee-os/lib/libutils/isoc/bget.c:1741
     fdc:	f942ab80 	ldr	x0, [x28, #1360]
     fe0:	b5ffff40 	cbnz	x0, fc8 <bget_main_test+0x134>
/home/atmark/optee-build/imx-boot/imx-optee-os/lib/libutils/isoc/bget.c:1760
     fe4:	52800000 	mov	w0, #0x0                   	// #0
     fe8:	a94153f3 	ldp	x19, x20, [sp, #16]
     fec:	a9425bf5 	ldp	x21, x22, [sp, #32]
     ff0:	a94363f7 	ldp	x23, x24, [sp, #48]
     ff4:	a9446bf9 	ldp	x25, x26, [sp, #64]
     ff8:	a94573fb 	ldp	x27, x28, [sp, #80]
     ffc:	a8c77bfd 	ldp	x29, x30, [sp], #112
    1000:	d65f03c0 	ret
/home/atmark/optee-build/imx-boot/imx-optee-os/lib/libutils/isoc/bget.c:1645
    1004:	9110c303 	add	x3, x24, #0x430
    1008:	aa1b03e1 	mov	x1, x27
    100c:	aa1603e0 	mov	x0, x22
    1010:	97fffdac 	bl	6c0 <bget>
/home/atmark/optee-build/imx-boot/imx-optee-os/lib/libutils/isoc/bget.c:1647
    1014:	b5fffac0 	cbnz	x0, f6c <bget_main_test+0xd8>
/home/atmark/optee-build/imx-boot/imx-optee-os/lib/libutils/isoc/bget.c:1651
    1018:	900000fc 	adrp	x28, 1d000 <ta_heap+0x7ab0>
    101c:	f942ab81 	ldr	x1, [x28, #1360]
/home/atmark/optee-build/imx-boot/imx-optee-os/lib/libutils/isoc/bget.c:1653
    1020:	b4fffc81 	cbz	x1, fb0 <bget_main_test+0x11c>
/home/atmark/optee-build/imx-boot/imx-optee-os/lib/libutils/isoc/bget.c:1656
    1024:	f9400020 	ldr	x0, [x1]
/home/atmark/optee-build/imx-boot/imx-optee-os/lib/libutils/isoc/bget.c:1657
    1028:	b4fffc40 	cbz	x0, fb0 <bget_main_test+0x11c>
/home/atmark/optee-build/imx-boot/imx-optee-os/lib/libutils/isoc/bget.c:1658
    102c:	f9400002 	ldr	x2, [x0]
    1030:	f9000022 	str	x2, [x1]
/home/atmark/optee-build/imx-boot/imx-optee-os/lib/libutils/isoc/bget.c:1659
    1034:	9110c301 	add	x1, x24, #0x430
    1038:	52800022 	mov	w2, #0x1                   	// #1
    103c:	97fffe7d 	bl	a30 <brel>
    1040:	17ffffdc 	b	fb0 <bget_main_test+0x11c>
myrand():
/home/atmark/optee-build/imx-boot/imx-optee-os/lib/libutils/isoc/bget.c:1412
    1044:	9b155042 	madd	x2, x2, x21, x20
bget_main_test():
/home/atmark/optee-build/imx-boot/imx-optee-os/lib/libutils/isoc/bget.c:1695
    1048:	f942ab9a 	ldr	x26, [x28, #1360]
myrand():
/home/atmark/optee-build/imx-boot/imx-optee-os/lib/libutils/isoc/bget.c:1412
    104c:	f9021662 	str	x2, [x19, #1064]
bget_main_test():
/home/atmark/optee-build/imx-boot/imx-optee-os/lib/libutils/isoc/bget.c:1696
    1050:	53104442 	ubfx	w2, w2, #16, #2
/home/atmark/optee-build/imx-boot/imx-optee-os/lib/libutils/isoc/bget.c:1698
    1054:	f100035f 	cmp	x26, #0x0
    1058:	7a401844 	ccmp	w2, #0x0, #0x4, ne  // ne = any
    105c:	540000cd 	b.le	1074 <bget_main_test+0x1e0>
/home/atmark/optee-build/imx-boot/imx-optee-os/lib/libutils/isoc/bget.c:1699
    1060:	f940035a 	ldr	x26, [x26]
/home/atmark/optee-build/imx-boot/imx-optee-os/lib/libutils/isoc/bget.c:1700
    1064:	51000442 	sub	w2, w2, #0x1
/home/atmark/optee-build/imx-boot/imx-optee-os/lib/libutils/isoc/bget.c:1698
    1068:	7100005f 	cmp	w2, #0x0
    106c:	fa40cb44 	ccmp	x26, #0x0, #0x4, gt
    1070:	54ffff81 	b.ne	1060 <bget_main_test+0x1cc>  // b.any
/home/atmark/optee-build/imx-boot/imx-optee-os/lib/libutils/isoc/bget.c:1702
    1074:	b4fff9fa 	cbz	x26, fb0 <bget_main_test+0x11c>
/home/atmark/optee-build/imx-boot/imx-optee-os/lib/libutils/isoc/bget.c:1705
    1078:	f9400342 	ldr	x2, [x26]
/home/atmark/optee-build/imx-boot/imx-optee-os/lib/libutils/isoc/bget.c:1706
    107c:	f90033e2 	str	x2, [sp, #96]
    1080:	b4fff982 	cbz	x2, fb0 <bget_main_test+0x11c>
/home/atmark/optee-build/imx-boot/imx-optee-os/lib/libutils/isoc/bget.c:1712
    1084:	94001414 	bl	60d4 <rand>
    1088:	b9006fe0 	str	w0, [sp, #108]
    108c:	94001412 	bl	60d4 <rand>
    1090:	12000803 	and	w3, w0, #0x7
    1094:	b9406fe1 	ldr	w1, [sp, #108]
/home/atmark/optee-build/imx-boot/imx-optee-os/lib/libutils/isoc/bget.c:1718
    1098:	52800105 	mov	w5, #0x8                   	// #8
    109c:	f94033e2 	ldr	x2, [sp, #96]
/home/atmark/optee-build/imx-boot/imx-optee-os/lib/libutils/isoc/bget.c:1712
    10a0:	12004021 	and	w1, w1, #0x1ffff
/home/atmark/optee-build/imx-boot/imx-optee-os/lib/libutils/isoc/bget.c:1718
    10a4:	9110c304 	add	x4, x24, #0x430
/home/atmark/optee-build/imx-boot/imx-optee-os/lib/libutils/isoc/bget.c:1712
    10a8:	1ac32823 	asr	w3, w1, w3
/home/atmark/optee-build/imx-boot/imx-optee-os/lib/libutils/isoc/bget.c:1718
    10ac:	6b05007f 	cmp	w3, w5
    10b0:	1a85a063 	csel	w3, w3, w5, ge  // ge = tcont
    10b4:	aa0203e0 	mov	x0, x2
    10b8:	aa1603e1 	mov	x1, x22
    10bc:	aa1b03e2 	mov	x2, x27
    10c0:	93407c63 	sxtw	x3, w3
    10c4:	97ffff03 	bl	cd0 <bgetr>
/home/atmark/optee-build/imx-boot/imx-optee-os/lib/libutils/isoc/bget.c:1722
    10c8:	b4fff740 	cbz	x0, fb0 <bget_main_test+0x11c>
/home/atmark/optee-build/imx-boot/imx-optee-os/lib/libutils/isoc/bget.c:1723
    10cc:	b40000b6 	cbz	x22, 10e0 <bget_main_test+0x24c>
/home/atmark/optee-build/imx-boot/imx-optee-os/lib/libutils/isoc/bget.c:1723 (discriminator 1)
    10d0:	8b1b001b 	add	x27, x0, x27
    10d4:	d10006d6 	sub	x22, x22, #0x1
    10d8:	ea16037f 	tst	x27, x22
    10dc:	54000601 	b.ne	119c <bget_main_test+0x308>  // b.any
/home/atmark/optee-build/imx-boot/imx-optee-os/lib/libutils/isoc/bget.c:1725 (discriminator 4)
    10e0:	f9000340 	str	x0, [x26]
    10e4:	17ffffb3 	b	fb0 <bget_main_test+0x11c>
myrand():
/home/atmark/optee-build/imx-boot/imx-optee-os/lib/libutils/isoc/bget.c:1412
    10e8:	f9021662 	str	x2, [x19, #1064]
bget_main_test():
/home/atmark/optee-build/imx-boot/imx-optee-os/lib/libutils/isoc/bget.c:1676
    10ec:	72000463 	ands	w3, w3, #0x3
    10f0:	54000061 	b.ne	10fc <bget_main_test+0x268>  // b.any
    10f4:	14000013 	b	1140 <bget_main_test+0x2ac>
/home/atmark/optee-build/imx-boot/imx-optee-os/lib/libutils/isoc/bget.c:1677
    10f8:	f9400084 	ldr	x4, [x4]
/home/atmark/optee-build/imx-boot/imx-optee-os/lib/libutils/isoc/bget.c:1678
    10fc:	51000463 	sub	w3, w3, #0x1
/home/atmark/optee-build/imx-boot/imx-optee-os/lib/libutils/isoc/bget.c:1676
    1100:	7100007f 	cmp	w3, #0x0
    1104:	fa40c884 	ccmp	x4, #0x0, #0x4, gt
    1108:	54ffff81 	b.ne	10f8 <bget_main_test+0x264>  // b.any
/home/atmark/optee-build/imx-boot/imx-optee-os/lib/libutils/isoc/bget.c:1680
    110c:	b4000144 	cbz	x4, 1134 <bget_main_test+0x2a0>
/home/atmark/optee-build/imx-boot/imx-optee-os/lib/libutils/isoc/bget.c:1683
    1110:	f9400081 	ldr	x1, [x4]
/home/atmark/optee-build/imx-boot/imx-optee-os/lib/libutils/isoc/bget.c:1684
    1114:	b4000101 	cbz	x1, 1134 <bget_main_test+0x2a0>
/home/atmark/optee-build/imx-boot/imx-optee-os/lib/libutils/isoc/bget.c:1685
    1118:	f9400020 	ldr	x0, [x1]
    111c:	f9000080 	str	x0, [x4]
/home/atmark/optee-build/imx-boot/imx-optee-os/lib/libutils/isoc/bget.c:1686
    1120:	52800022 	mov	w2, #0x1                   	// #1
    1124:	aa0103e0 	mov	x0, x1
    1128:	9110c301 	add	x1, x24, #0x430
    112c:	97fffe41 	bl	a30 <brel>
myrand():
/home/atmark/optee-build/imx-boot/imx-optee-os/lib/libutils/isoc/bget.c:1412
    1130:	f9421662 	ldr	x2, [x19, #1064]
    1134:	9b155042 	madd	x2, x2, x21, x20
/home/atmark/optee-build/imx-boot/imx-optee-os/lib/libutils/isoc/bget.c:1413
    1138:	d350bc45 	ubfx	x5, x2, #16, #32
    113c:	17ffff9b 	b	fa8 <bget_main_test+0x114>
bget_main_test():
/home/atmark/optee-build/imx-boot/imx-optee-os/lib/libutils/isoc/bget.c:1676
    1140:	aa0403e1 	mov	x1, x4
    1144:	aa0003e4 	mov	x4, x0
    1148:	17fffff3 	b	1114 <bget_main_test+0x280>
/home/atmark/optee-build/imx-boot/imx-optee-os/lib/libutils/isoc/bget.c:1665 (discriminator 3)
    114c:	d0000083 	adrp	x3, 13000 <__text_end+0x3174>
    1150:	912e8063 	add	x3, x3, #0xba0
    1154:	9100a063 	add	x3, x3, #0x28
    1158:	d0000081 	adrp	x1, 13000 <__text_end+0x3174>
    115c:	d0000080 	adrp	x0, 13000 <__text_end+0x3174>
    1160:	91202021 	add	x1, x1, #0x808
    1164:	912ba000 	add	x0, x0, #0xae8
    1168:	5280d022 	mov	w2, #0x681                 	// #1665
    116c:	94000701 	bl	2d70 <_assert_log>
    1170:	94000711 	bl	2db4 <_assert_break>
/home/atmark/optee-build/imx-boot/imx-optee-os/lib/libutils/isoc/bget.c:1602 (discriminator 1)
    1174:	d0000083 	adrp	x3, 13000 <__text_end+0x3174>
    1178:	912e8063 	add	x3, x3, #0xba0
    117c:	9100a063 	add	x3, x3, #0x28
    1180:	d0000081 	adrp	x1, 13000 <__text_end+0x3174>
    1184:	d0000080 	adrp	x0, 13000 <__text_end+0x3174>
    1188:	91202021 	add	x1, x1, #0x808
    118c:	912b6000 	add	x0, x0, #0xad8
    1190:	5280c842 	mov	w2, #0x642                 	// #1602
    1194:	940006f7 	bl	2d70 <_assert_log>
    1198:	94000707 	bl	2db4 <_assert_break>
/home/atmark/optee-build/imx-boot/imx-optee-os/lib/libutils/isoc/bget.c:1723 (discriminator 3)
    119c:	d0000083 	adrp	x3, 13000 <__text_end+0x3174>
    11a0:	912e8063 	add	x3, x3, #0xba0
    11a4:	9100a063 	add	x3, x3, #0x28
    11a8:	d0000081 	adrp	x1, 13000 <__text_end+0x3174>
    11ac:	d0000080 	adrp	x0, 13000 <__text_end+0x3174>
    11b0:	91202021 	add	x1, x1, #0x808
    11b4:	912ca000 	add	x0, x0, #0xb28
    11b8:	5280d762 	mov	w2, #0x6bb                 	// #1723
    11bc:	940006ed 	bl	2d70 <_assert_log>
    11c0:	940006fd 	bl	2db4 <_assert_break>

00000000000011c4 <malloc>:
raw_memalign():
/home/atmark/optee-build/imx-boot/imx-optee-os/lib/libutils/isoc/bget_malloc.c:362
    11c4:	b7f80120 	tbnz	x0, #63, 11e8 <malloc+0x24>
/home/atmark/optee-build/imx-boot/imx-optee-os/lib/libutils/isoc/bget_malloc.c:367
    11c8:	f100001f 	cmp	x0, #0x0
/home/atmark/optee-build/imx-boot/imx-optee-os/lib/libutils/isoc/bget_malloc.c:369
    11cc:	900000a3 	adrp	x3, 15000 <_DYNAMIC>
    11d0:	9110c063 	add	x3, x3, #0x430
    11d4:	9a9f1402 	csinc	x2, x0, xzr, ne  // ne = any
    11d8:	91008063 	add	x3, x3, #0x20
    11dc:	d2800001 	mov	x1, #0x0                   	// #0
    11e0:	d2800200 	mov	x0, #0x10                  	// #16
    11e4:	17fffd37 	b	6c0 <bget>
malloc():
/home/atmark/optee-build/imx-boot/imx-optee-os/lib/libutils/isoc/bget_malloc.c:698
    11e8:	d2800000 	mov	x0, #0x0                   	// #0
    11ec:	d65f03c0 	ret

00000000000011f0 <calloc>:
raw_calloc():
/home/atmark/optee-build/imx-boot/imx-optee-os/lib/libutils/isoc/bget_malloc.c:403
    11f0:	9bc17c03 	umulh	x3, x0, x1
    11f4:	d2800022 	mov	x2, #0x1                   	// #1
    11f8:	9b017c00 	mul	x0, x0, x1
    11fc:	f100007f 	cmp	x3, #0x0
    1200:	9a9f07e1 	cset	x1, ne  // ne = any
    1204:	f100001f 	cmp	x0, #0x0
    1208:	9a82a021 	csel	x1, x1, x2, ge  // ge = tcont
    120c:	b50000e1 	cbnz	x1, 1228 <calloc+0x38>
/home/atmark/optee-build/imx-boot/imx-optee-os/lib/libutils/isoc/bget_malloc.c:412
    1210:	900000a3 	adrp	x3, 15000 <_DYNAMIC>
    1214:	9110c063 	add	x3, x3, #0x430
    1218:	9a821002 	csel	x2, x0, x2, ne  // ne = any
    121c:	91008063 	add	x3, x3, #0x20
    1220:	d2800000 	mov	x0, #0x0                   	// #0
    1224:	17fffddf 	b	9a0 <bgetz>
calloc():
/home/atmark/optee-build/imx-boot/imx-optee-os/lib/libutils/isoc/bget_malloc.c:716
    1228:	d2800000 	mov	x0, #0x0                   	// #0
    122c:	d65f03c0 	ret

0000000000001230 <realloc>:
raw_realloc():
/home/atmark/optee-build/imx-boot/imx-optee-os/lib/libutils/isoc/bget_malloc.c:426
    1230:	b7f80121 	tbnz	x1, #63, 1254 <realloc+0x24>
/home/atmark/optee-build/imx-boot/imx-optee-os/lib/libutils/isoc/bget_malloc.c:435
    1234:	f100003f 	cmp	x1, #0x0
/home/atmark/optee-build/imx-boot/imx-optee-os/lib/libutils/isoc/bget_malloc.c:437
    1238:	900000a4 	adrp	x4, 15000 <_DYNAMIC>
    123c:	9110c084 	add	x4, x4, #0x430
    1240:	9a9f1423 	csinc	x3, x1, xzr, ne  // ne = any
    1244:	91008084 	add	x4, x4, #0x20
    1248:	d2800002 	mov	x2, #0x0                   	// #0
    124c:	d2800001 	mov	x1, #0x0                   	// #0
    1250:	17fffea0 	b	cd0 <bgetr>
realloc():
/home/atmark/optee-build/imx-boot/imx-optee-os/lib/libutils/isoc/bget_malloc.c:732
    1254:	d2800000 	mov	x0, #0x0                   	// #0
    1258:	d65f03c0 	ret
    125c:	d503201f 	nop

0000000000001260 <memalign>:
raw_memalign():
/home/atmark/optee-build/imx-boot/imx-optee-os/lib/libutils/isoc/bget_malloc.c:356
    1260:	b4000180 	cbz	x0, 1290 <memalign+0x30>
    1264:	cb0003e2 	neg	x2, x0
    1268:	ea22001f 	bics	xzr, x0, x2
    126c:	54000121 	b.ne	1290 <memalign+0x30>  // b.any
/home/atmark/optee-build/imx-boot/imx-optee-os/lib/libutils/isoc/bget_malloc.c:362
    1270:	b7f80101 	tbnz	x1, #63, 1290 <memalign+0x30>
/home/atmark/optee-build/imx-boot/imx-optee-os/lib/libutils/isoc/bget_malloc.c:367
    1274:	f100003f 	cmp	x1, #0x0
/home/atmark/optee-build/imx-boot/imx-optee-os/lib/libutils/isoc/bget_malloc.c:369
    1278:	900000a3 	adrp	x3, 15000 <_DYNAMIC>
    127c:	9110c063 	add	x3, x3, #0x430
    1280:	9a9f1422 	csinc	x2, x1, xzr, ne  // ne = any
    1284:	91008063 	add	x3, x3, #0x20
    1288:	d2800001 	mov	x1, #0x0                   	// #0
    128c:	17fffd0d 	b	6c0 <bget>
memalign():
/home/atmark/optee-build/imx-boot/imx-optee-os/lib/libutils/isoc/bget_malloc.c:742
    1290:	d2800000 	mov	x0, #0x0                   	// #0
    1294:	d65f03c0 	ret
    1298:	d503201f 	nop
    129c:	d503201f 	nop

00000000000012a0 <free>:
raw_free():
/home/atmark/optee-build/imx-boot/imx-optee-os/lib/libutils/isoc/bget_malloc.c:390
    12a0:	b40000c0 	cbz	x0, 12b8 <free+0x18>
/home/atmark/optee-build/imx-boot/imx-optee-os/lib/libutils/isoc/bget_malloc.c:391
    12a4:	900000a1 	adrp	x1, 15000 <_DYNAMIC>
    12a8:	9110c021 	add	x1, x1, #0x430
    12ac:	91008021 	add	x1, x1, #0x20
    12b0:	52800002 	mov	w2, #0x0                   	// #0
    12b4:	17fffddf 	b	a30 <brel>
free():
/home/atmark/optee-build/imx-boot/imx-optee-os/lib/libutils/isoc/bget_malloc.c:755
    12b8:	d65f03c0 	ret
    12bc:	d503201f 	nop

00000000000012c0 <free_wipe>:
raw_free():
/home/atmark/optee-build/imx-boot/imx-optee-os/lib/libutils/isoc/bget_malloc.c:390
    12c0:	b40000c0 	cbz	x0, 12d8 <free_wipe+0x18>
/home/atmark/optee-build/imx-boot/imx-optee-os/lib/libutils/isoc/bget_malloc.c:391
    12c4:	900000a1 	adrp	x1, 15000 <_DYNAMIC>
    12c8:	9110c021 	add	x1, x1, #0x430
    12cc:	91008021 	add	x1, x1, #0x20
    12d0:	52800022 	mov	w2, #0x1                   	// #1
    12d4:	17fffdd7 	b	a30 <brel>
free_wipe():
/home/atmark/optee-build/imx-boot/imx-optee-os/lib/libutils/isoc/bget_malloc.c:760
    12d8:	d65f03c0 	ret
    12dc:	d503201f 	nop

00000000000012e0 <malloc_add_pool>:
malloc_add_pool():
/home/atmark/optee-build/imx-boot/imx-optee-os/lib/libutils/isoc/bget_malloc.c:881
    12e0:	a9bd7bfd 	stp	x29, x30, [sp, #-48]!
gen_malloc_add_pool():
/home/atmark/optee-build/imx-boot/imx-optee-os/lib/libutils/isoc/bget_malloc.c:768
    12e4:	8b010001 	add	x1, x0, x1
/home/atmark/optee-build/imx-boot/imx-optee-os/lib/libutils/isoc/bget_malloc.c:774
    12e8:	91003c00 	add	x0, x0, #0xf
malloc_add_pool():
/home/atmark/optee-build/imx-boot/imx-optee-os/lib/libutils/isoc/bget_malloc.c:881
    12ec:	910003fd 	mov	x29, sp
gen_malloc_add_pool():
/home/atmark/optee-build/imx-boot/imx-optee-os/lib/libutils/isoc/bget_malloc.c:775
    12f0:	927cec21 	and	x1, x1, #0xfffffffffffffff0
malloc_add_pool():
/home/atmark/optee-build/imx-boot/imx-optee-os/lib/libutils/isoc/bget_malloc.c:881
    12f4:	a90153f3 	stp	x19, x20, [sp, #16]
gen_malloc_add_pool():
/home/atmark/optee-build/imx-boot/imx-optee-os/lib/libutils/isoc/bget_malloc.c:774
    12f8:	927cec13 	and	x19, x0, #0xfffffffffffffff0
/home/atmark/optee-build/imx-boot/imx-optee-os/lib/libutils/isoc/bget_malloc.c:776
    12fc:	eb01027f 	cmp	x19, x1
    1300:	540005e2 	b.cs	13bc <malloc_add_pool+0xdc>  // b.hs, b.nlast
/home/atmark/optee-build/imx-boot/imx-optee-os/lib/libutils/isoc/bget_malloc.c:778
    1304:	cb130034 	sub	x20, x1, x19
    1308:	f100be9f 	cmp	x20, #0x2f
    130c:	54000088 	b.hi	131c <malloc_add_pool+0x3c>  // b.pmore
malloc_add_pool():
/home/atmark/optee-build/imx-boot/imx-optee-os/lib/libutils/isoc/bget_malloc.c:883
    1310:	a94153f3 	ldp	x19, x20, [sp, #16]
    1314:	a8c37bfd 	ldp	x29, x30, [sp], #48
    1318:	d65f03c0 	ret
gen_malloc_add_pool():
/home/atmark/optee-build/imx-boot/imx-optee-os/lib/libutils/isoc/bget_malloc.c:799
    131c:	a9025bf5 	stp	x21, x22, [sp, #32]
    1320:	900000b5 	adrp	x21, 15000 <_DYNAMIC>
    1324:	9110c2b5 	add	x21, x21, #0x430
    1328:	910082b5 	add	x21, x21, #0x20
    132c:	aa1303e0 	mov	x0, x19
    1330:	aa1403e1 	mov	x1, x20
    1334:	aa1503e2 	mov	x2, x21
    1338:	97fffe9e 	bl	db0 <bpool>
/home/atmark/optee-build/imx-boot/imx-optee-os/lib/libutils/isoc/bget_malloc.c:800
    133c:	a9425aa0 	ldp	x0, x22, [x21, #32]
    1340:	910006d6 	add	x22, x22, #0x1
/home/atmark/optee-build/imx-boot/imx-optee-os/lib/libutils/isoc/bget_malloc.c:801
    1344:	d37ceec3 	lsl	x3, x22, #4
raw_realloc():
/home/atmark/optee-build/imx-boot/imx-optee-os/lib/libutils/isoc/bget_malloc.c:426
    1348:	b7d80276 	tbnz	x22, #59, 1394 <malloc_add_pool+0xb4>
/home/atmark/optee-build/imx-boot/imx-optee-os/lib/libutils/isoc/bget_malloc.c:435
    134c:	f100007f 	cmp	x3, #0x0
/home/atmark/optee-build/imx-boot/imx-optee-os/lib/libutils/isoc/bget_malloc.c:437
    1350:	aa1503e4 	mov	x4, x21
    1354:	9a9f1463 	csinc	x3, x3, xzr, ne  // ne = any
    1358:	d2800002 	mov	x2, #0x0                   	// #0
    135c:	d2800001 	mov	x1, #0x0                   	// #0
    1360:	97fffe5c 	bl	cd0 <bgetr>
gen_malloc_add_pool():
/home/atmark/optee-build/imx-boot/imx-optee-os/lib/libutils/isoc/bget_malloc.c:802
    1364:	b4000180 	cbz	x0, 1394 <malloc_add_pool+0xb4>
/home/atmark/optee-build/imx-boot/imx-optee-os/lib/libutils/isoc/bget_malloc.c:804
    1368:	f94016a1 	ldr	x1, [x21, #40]
/home/atmark/optee-build/imx-boot/imx-optee-os/lib/libutils/isoc/bget_malloc.c:803
    136c:	f90012a0 	str	x0, [x21, #32]
/home/atmark/optee-build/imx-boot/imx-optee-os/lib/libutils/isoc/bget_malloc.c:804
    1370:	d37cec21 	lsl	x1, x1, #4
    1374:	8b010002 	add	x2, x0, x1
    1378:	f8216813 	str	x19, [x0, x1]
/home/atmark/optee-build/imx-boot/imx-optee-os/lib/libutils/isoc/bget_malloc.c:805
    137c:	f9000454 	str	x20, [x2, #8]
/home/atmark/optee-build/imx-boot/imx-optee-os/lib/libutils/isoc/bget_malloc.c:809
    1380:	f90016b6 	str	x22, [x21, #40]
malloc_add_pool():
/home/atmark/optee-build/imx-boot/imx-optee-os/lib/libutils/isoc/bget_malloc.c:883
    1384:	a94153f3 	ldp	x19, x20, [sp, #16]
gen_malloc_add_pool():
/home/atmark/optee-build/imx-boot/imx-optee-os/lib/libutils/isoc/bget_malloc.c:809
    1388:	a9425bf5 	ldp	x21, x22, [sp, #32]
malloc_add_pool():
/home/atmark/optee-build/imx-boot/imx-optee-os/lib/libutils/isoc/bget_malloc.c:883
    138c:	a8c37bfd 	ldp	x29, x30, [sp], #48
    1390:	d65f03c0 	ret
gen_malloc_add_pool():
/home/atmark/optee-build/imx-boot/imx-optee-os/lib/libutils/isoc/bget_malloc.c:802
    1394:	d0000083 	adrp	x3, 13000 <__text_end+0x3174>
    1398:	912e8063 	add	x3, x3, #0xba0
    139c:	91014063 	add	x3, x3, #0x50
    13a0:	d0000081 	adrp	x1, 13000 <__text_end+0x3174>
    13a4:	d0000080 	adrp	x0, 13000 <__text_end+0x3174>
    13a8:	912da021 	add	x1, x1, #0xb68
    13ac:	912e6000 	add	x0, x0, #0xb98
    13b0:	52806442 	mov	w2, #0x322                 	// #802
    13b4:	9400066f 	bl	2d70 <_assert_log>
    13b8:	9400067f 	bl	2db4 <_assert_break>
/home/atmark/optee-build/imx-boot/imx-optee-os/lib/libutils/isoc/bget_malloc.c:776
    13bc:	d0000083 	adrp	x3, 13000 <__text_end+0x3174>
    13c0:	912e8063 	add	x3, x3, #0xba0
    13c4:	91014063 	add	x3, x3, #0x50
    13c8:	d0000081 	adrp	x1, 13000 <__text_end+0x3174>
    13cc:	d0000080 	adrp	x0, 13000 <__text_end+0x3174>
    13d0:	912da021 	add	x1, x1, #0xb68
    13d4:	912e2000 	add	x0, x0, #0xb88
    13d8:	52806102 	mov	w2, #0x308                 	// #776
    13dc:	a9025bf5 	stp	x21, x22, [sp, #32]
    13e0:	94000664 	bl	2d70 <_assert_log>
    13e4:	94000674 	bl	2db4 <_assert_break>
malloc_add_pool():
/home/atmark/optee-build/imx-boot/imx-optee-os/lib/libutils/isoc/bget_malloc.c:776
    13e8:	d503201f 	nop
    13ec:	d503201f 	nop

00000000000013f0 <malloc_buffer_is_within_alloced>:
gen_malloc_buffer_is_within_alloced():
/home/atmark/optee-build/imx-boot/imx-optee-os/lib/libutils/isoc/bget_malloc.c:826
    13f0:	ab01000a 	adds	x10, x0, x1
    13f4:	54000702 	b.cs	14d4 <malloc_buffer_is_within_alloced+0xe4>  // b.hs, b.nlast
    13f8:	aa0003e7 	mov	x7, x0
bpool_foreach_iterator_init():
/home/atmark/optee-build/imx-boot/imx-optee-os/lib/libutils/isoc/bget_malloc.c:291
    13fc:	900000a0 	adrp	x0, 15000 <_DYNAMIC>
    1400:	9110c000 	add	x0, x0, #0x430
/home/atmark/optee-build/imx-boot/imx-optee-os/lib/libutils/isoc/bget_malloc.c:290
    1404:	d2800003 	mov	x3, #0x0                   	// #0
bpool_foreach_pool():
/home/atmark/optee-build/imx-boot/imx-optee-os/lib/libutils/isoc/bget_malloc.c:300
    1408:	d2f00005 	mov	x5, #0x8000000000000000    	// #-9223372036854775808
    140c:	928001eb 	mov	x11, #0xfffffffffffffff0    	// #-16
bpool_foreach():
/home/atmark/optee-build/imx-boot/imx-optee-os/lib/libutils/isoc/bget_malloc.c:337
    1410:	a9442408 	ldp	x8, x9, [x0, #64]
bpool_foreach_iterator_init():
/home/atmark/optee-build/imx-boot/imx-optee-os/lib/libutils/isoc/bget_malloc.c:291
    1414:	f9400101 	ldr	x1, [x8]
bpool_foreach_pool():
/home/atmark/optee-build/imx-boot/imx-optee-os/lib/libutils/isoc/bget_malloc.c:298
    1418:	f9400422 	ldr	x2, [x1, #8]
/home/atmark/optee-build/imx-boot/imx-optee-os/lib/libutils/isoc/bget_malloc.c:300
    141c:	eb05005f 	cmp	x2, x5
    1420:	54000480 	b.eq	14b0 <malloc_buffer_is_within_alloced+0xc0>  // b.none
malloc_buffer_is_within_alloced():
/home/atmark/optee-build/imx-boot/imx-optee-os/lib/libutils/isoc/bget_malloc.c:886
    1424:	a9bf7bfd 	stp	x29, x30, [sp, #-16]!
    1428:	910003fd 	mov	x29, sp
bpool_foreach_pool():
/home/atmark/optee-build/imx-boot/imx-optee-os/lib/libutils/isoc/bget_malloc.c:303
    142c:	b7f80262 	tbnz	x2, #63, 1478 <malloc_buffer_is_within_alloced+0x88>
/home/atmark/optee-build/imx-boot/imx-optee-os/lib/libutils/isoc/bget_malloc.c:313
    1430:	f9400c24 	ldr	x4, [x1, #24]
    1434:	f9400884 	ldr	x4, [x4, #16]
    1438:	eb01009f 	cmp	x4, x1
    143c:	54000501 	b.ne	14dc <malloc_buffer_is_within_alloced+0xec>  // b.any
/home/atmark/optee-build/imx-boot/imx-optee-os/lib/libutils/isoc/bget_malloc.c:314
    1440:	f9400824 	ldr	x4, [x1, #16]
    1444:	f9400c84 	ldr	x4, [x4, #24]
    1448:	eb01009f 	cmp	x4, x1
    144c:	540005c1 	b.ne	1504 <malloc_buffer_is_within_alloced+0x114>  // b.any
/home/atmark/optee-build/imx-boot/imx-optee-os/lib/libutils/isoc/bget_malloc.c:320
    1450:	8b020021 	add	x1, x1, x2
/home/atmark/optee-build/imx-boot/imx-optee-os/lib/libutils/isoc/bget_malloc.c:298
    1454:	f9400422 	ldr	x2, [x1, #8]
/home/atmark/optee-build/imx-boot/imx-optee-os/lib/libutils/isoc/bget_malloc.c:300
    1458:	eb05005f 	cmp	x2, x5
    145c:	54fffe81 	b.ne	142c <malloc_buffer_is_within_alloced+0x3c>  // b.any
bpool_foreach():
/home/atmark/optee-build/imx-boot/imx-optee-os/lib/libutils/isoc/bget_malloc.c:337
    1460:	91000463 	add	x3, x3, #0x1
    1464:	eb09007f 	cmp	x3, x9
    1468:	54000302 	b.cs	14c8 <malloc_buffer_is_within_alloced+0xd8>  // b.hs, b.nlast
/home/atmark/optee-build/imx-boot/imx-optee-os/lib/libutils/isoc/bget_malloc.c:341
    146c:	d37cec61 	lsl	x1, x3, #4
    1470:	f8616901 	ldr	x1, [x8, x1]
    1474:	17fffff8 	b	1454 <malloc_buffer_is_within_alloced+0x64>
bpool_foreach_pool():
/home/atmark/optee-build/imx-boot/imx-optee-os/lib/libutils/isoc/bget_malloc.c:317
    1478:	cb020164 	sub	x4, x11, x2
    147c:	91004026 	add	x6, x1, #0x10
/home/atmark/optee-build/imx-boot/imx-optee-os/lib/libutils/isoc/bget_malloc.c:320
    1480:	cb020021 	sub	x1, x1, x2
bget_buf_size():
/home/atmark/optee-build/imx-boot/imx-optee-os/lib/libutils/isoc/bget_malloc.c:462
    1484:	f100009f 	cmp	x4, #0x0
    1488:	5400052d 	b.le	152c <malloc_buffer_is_within_alloced+0x13c>
gen_malloc_buffer_is_within_alloced():
/home/atmark/optee-build/imx-boot/imx-optee-os/lib/libutils/isoc/bget_malloc.c:835
    148c:	8b0400c4 	add	x4, x6, x4
/home/atmark/optee-build/imx-boot/imx-optee-os/lib/libutils/isoc/bget_malloc.c:837
    1490:	eb04015f 	cmp	x10, x4
    1494:	1a9f87e2 	cset	w2, ls  // ls = plast
    1498:	eb0600ff 	cmp	x7, x6
    149c:	1a9f37e0 	cset	w0, cs  // cs = hs, nlast
    14a0:	6a000040 	ands	w0, w2, w0
    14a4:	54fffd80 	b.eq	1454 <malloc_buffer_is_within_alloced+0x64>  // b.none
malloc_buffer_is_within_alloced():
/home/atmark/optee-build/imx-boot/imx-optee-os/lib/libutils/isoc/bget_malloc.c:888
    14a8:	a8c17bfd 	ldp	x29, x30, [sp], #16
    14ac:	d65f03c0 	ret
bpool_foreach():
/home/atmark/optee-build/imx-boot/imx-optee-os/lib/libutils/isoc/bget_malloc.c:337
    14b0:	91000463 	add	x3, x3, #0x1
    14b4:	eb09007f 	cmp	x3, x9
    14b8:	540000e2 	b.cs	14d4 <malloc_buffer_is_within_alloced+0xe4>  // b.hs, b.nlast
/home/atmark/optee-build/imx-boot/imx-optee-os/lib/libutils/isoc/bget_malloc.c:341
    14bc:	d37cec61 	lsl	x1, x3, #4
    14c0:	f8616901 	ldr	x1, [x8, x1]
    14c4:	17ffffd5 	b	1418 <malloc_buffer_is_within_alloced+0x28>
gen_malloc_buffer_is_within_alloced():
/home/atmark/optee-build/imx-boot/imx-optee-os/lib/libutils/isoc/bget_malloc.c:820
    14c8:	52800000 	mov	w0, #0x0                   	// #0
malloc_buffer_is_within_alloced():
/home/atmark/optee-build/imx-boot/imx-optee-os/lib/libutils/isoc/bget_malloc.c:888
    14cc:	a8c17bfd 	ldp	x29, x30, [sp], #16
    14d0:	d65f03c0 	ret
gen_malloc_buffer_is_within_alloced():
/home/atmark/optee-build/imx-boot/imx-optee-os/lib/libutils/isoc/bget_malloc.c:820
    14d4:	52800000 	mov	w0, #0x0                   	// #0
malloc_buffer_is_within_alloced():
/home/atmark/optee-build/imx-boot/imx-optee-os/lib/libutils/isoc/bget_malloc.c:888
    14d8:	d65f03c0 	ret
bpool_foreach_pool():
/home/atmark/optee-build/imx-boot/imx-optee-os/lib/libutils/isoc/bget_malloc.c:313
    14dc:	d0000083 	adrp	x3, 13000 <__text_end+0x3174>
    14e0:	912e8063 	add	x3, x3, #0xba0
    14e4:	9101e063 	add	x3, x3, #0x78
    14e8:	d0000081 	adrp	x1, 13000 <__text_end+0x3174>
    14ec:	d0000080 	adrp	x0, 13000 <__text_end+0x3174>
    14f0:	912da021 	add	x1, x1, #0xb68
    14f4:	91216000 	add	x0, x0, #0x858
    14f8:	52802722 	mov	w2, #0x139                 	// #313
    14fc:	9400061d 	bl	2d70 <_assert_log>
    1500:	9400062d 	bl	2db4 <_assert_break>
/home/atmark/optee-build/imx-boot/imx-optee-os/lib/libutils/isoc/bget_malloc.c:314
    1504:	d0000083 	adrp	x3, 13000 <__text_end+0x3174>
    1508:	912e8063 	add	x3, x3, #0xba0
    150c:	9101e063 	add	x3, x3, #0x78
    1510:	d0000081 	adrp	x1, 13000 <__text_end+0x3174>
    1514:	d0000080 	adrp	x0, 13000 <__text_end+0x3174>
    1518:	912da021 	add	x1, x1, #0xb68
    151c:	9121e000 	add	x0, x0, #0x878
    1520:	52802742 	mov	w2, #0x13a                 	// #314
    1524:	94000613 	bl	2d70 <_assert_log>
    1528:	94000623 	bl	2db4 <_assert_break>
bget_buf_size():
/home/atmark/optee-build/imx-boot/imx-optee-os/lib/libutils/isoc/bget_malloc.c:462
    152c:	d0000083 	adrp	x3, 13000 <__text_end+0x3174>
    1530:	912e8063 	add	x3, x3, #0xba0
    1534:	9101a063 	add	x3, x3, #0x68
    1538:	d0000081 	adrp	x1, 13000 <__text_end+0x3174>
    153c:	d0000080 	adrp	x0, 13000 <__text_end+0x3174>
    1540:	912da021 	add	x1, x1, #0xb68
    1544:	912a4000 	add	x0, x0, #0xa90
    1548:	528039c2 	mov	w2, #0x1ce                 	// #462
    154c:	94000609 	bl	2d70 <_assert_log>
    1550:	94000619 	bl	2db4 <_assert_break>

0000000000001554 <malloc_buffer_overlaps_heap>:
gen_malloc_buffer_overlaps_heap():
/home/atmark/optee-build/imx-boot/imx-optee-os/lib/libutils/isoc/bget_malloc.c:860
    1554:	900000a2 	adrp	x2, 15000 <_DYNAMIC>
    1558:	9110c042 	add	x2, x2, #0x430
    155c:	ab010001 	adds	x1, x0, x1
malloc_buffer_overlaps_heap():
/home/atmark/optee-build/imx-boot/imx-optee-os/lib/libutils/isoc/bget_malloc.c:891
    1560:	aa0003e6 	mov	x6, x0
gen_malloc_buffer_overlaps_heap():
/home/atmark/optee-build/imx-boot/imx-optee-os/lib/libutils/isoc/bget_malloc.c:853
    1564:	9a9f37e7 	cset	x7, cs  // cs = hs, nlast
/home/atmark/optee-build/imx-boot/imx-optee-os/lib/libutils/isoc/bget_malloc.c:860
    1568:	91008042 	add	x2, x2, #0x20
    156c:	f9401448 	ldr	x8, [x2, #40]
    1570:	b4000288 	cbz	x8, 15c0 <malloc_buffer_overlaps_heap+0x6c>
    1574:	d2800005 	mov	x5, #0x0                   	// #0
    1578:	f9401044 	ldr	x4, [x2, #32]
    157c:	14000005 	b	1590 <malloc_buffer_overlaps_heap+0x3c>
/home/atmark/optee-build/imx-boot/imx-optee-os/lib/libutils/isoc/bget_malloc.c:869
    1580:	2a020060 	orr	w0, w3, w2
    1584:	350001c0 	cbnz	w0, 15bc <malloc_buffer_overlaps_heap+0x68>
/home/atmark/optee-build/imx-boot/imx-optee-os/lib/libutils/isoc/bget_malloc.c:860
    1588:	eb0800bf 	cmp	x5, x8
    158c:	54000180 	b.eq	15bc <malloc_buffer_overlaps_heap+0x68>  // b.none
    1590:	a9400883 	ldp	x3, x2, [x4]
    1594:	910004a5 	add	x5, x5, #0x1
    1598:	91004084 	add	x4, x4, #0x10
/home/atmark/optee-build/imx-boot/imx-optee-os/lib/libutils/isoc/bget_malloc.c:864
    159c:	ab020062 	adds	x2, x3, x2
    15a0:	1a9f37e0 	cset	w0, cs  // cs = hs, nlast
/home/atmark/optee-build/imx-boot/imx-optee-os/lib/libutils/isoc/bget_malloc.c:869
    15a4:	eb03003f 	cmp	x1, x3
    15a8:	1a9f97e3 	cset	w3, hi  // hi = pmore
    15ac:	eb0200df 	cmp	x6, x2
    15b0:	1a9f27e2 	cset	w2, cc  // cc = lo, ul, last
/home/atmark/optee-build/imx-boot/imx-optee-os/lib/libutils/isoc/bget_malloc.c:864
    15b4:	2a0000e0 	orr	w0, w7, w0
    15b8:	34fffe40 	cbz	w0, 1580 <malloc_buffer_overlaps_heap+0x2c>
malloc_buffer_overlaps_heap():
/home/atmark/optee-build/imx-boot/imx-optee-os/lib/libutils/isoc/bget_malloc.c:893
    15bc:	d65f03c0 	ret
gen_malloc_buffer_overlaps_heap():
/home/atmark/optee-build/imx-boot/imx-optee-os/lib/libutils/isoc/bget_malloc.c:855
    15c0:	52800000 	mov	w0, #0x0                   	// #0
malloc_buffer_overlaps_heap():
/home/atmark/optee-build/imx-boot/imx-optee-os/lib/libutils/isoc/bget_malloc.c:893
    15c4:	d65f03c0 	ret
	...

00000000000015d0 <strndup>:
strndup():
/home/atmark/optee-build/imx-boot/imx-optee-os/lib/libutils/isoc/strndup.c:9
    15d0:	a9bd7bfd 	stp	x29, x30, [sp, #-48]!
    15d4:	910003fd 	mov	x29, sp
    15d8:	a90153f3 	stp	x19, x20, [sp, #16]
    15dc:	f90013f5 	str	x21, [sp, #32]
    15e0:	aa0003f5 	mov	x21, x0
/home/atmark/optee-build/imx-boot/imx-optee-os/lib/libutils/isoc/strndup.c:10
    15e4:	94000087 	bl	1800 <strnlen>
    15e8:	aa0003f4 	mov	x20, x0
/home/atmark/optee-build/imx-boot/imx-optee-os/lib/libutils/isoc/strndup.c:11
    15ec:	91000400 	add	x0, x0, #0x1
    15f0:	97fffef5 	bl	11c4 <malloc>
    15f4:	aa0003f3 	mov	x19, x0
/home/atmark/optee-build/imx-boot/imx-optee-os/lib/libutils/isoc/strndup.c:13
    15f8:	b40000a0 	cbz	x0, 160c <strndup+0x3c>
/home/atmark/optee-build/imx-boot/imx-optee-os/lib/libutils/isoc/strndup.c:14
    15fc:	aa1503e1 	mov	x1, x21
    1600:	aa1403e2 	mov	x2, x20
    1604:	94000007 	bl	1620 <memcpy>
/home/atmark/optee-build/imx-boot/imx-optee-os/lib/libutils/isoc/strndup.c:15
    1608:	38346a7f 	strb	wzr, [x19, x20]
/home/atmark/optee-build/imx-boot/imx-optee-os/lib/libutils/isoc/strndup.c:18
    160c:	aa1303e0 	mov	x0, x19
    1610:	a94153f3 	ldp	x19, x20, [sp, #16]
    1614:	f94013f5 	ldr	x21, [sp, #32]
    1618:	a8c37bfd 	ldp	x29, x30, [sp], #48
    161c:	d65f03c0 	ret

0000000000001620 <memcpy>:
memcpy():
/home/atmark/optee-build/imx-boot/imx-optee-os/lib/libutils/isoc/newlib/memcpy.c:106
    1620:	f1007c5f 	cmp	x2, #0x1f
    1624:	54000629 	b.ls	16e8 <memcpy+0xc8>  // b.plast
/home/atmark/optee-build/imx-boot/imx-optee-os/lib/libutils/isoc/newlib/memcpy.c:106 (discriminator 1)
    1628:	aa000025 	orr	x5, x1, x0
    162c:	f24008a5 	ands	x5, x5, #0x7
    1630:	54000641 	b.ne	16f8 <memcpy+0xd8>  // b.any
    1634:	d1008048 	sub	x8, x2, #0x20
/home/atmark/optee-build/imx-boot/imx-optee-os/lib/libutils/isoc/newlib/memcpy.c:108
    1638:	aa0103e3 	mov	x3, x1
    163c:	927be908 	and	x8, x8, #0xffffffffffffffe0
/home/atmark/optee-build/imx-boot/imx-optee-os/lib/libutils/isoc/newlib/memcpy.c:107
    1640:	aa0003e4 	mov	x4, x0
    1644:	91008108 	add	x8, x8, #0x20
    1648:	8b080007 	add	x7, x0, x8
    164c:	d503201f 	nop
/home/atmark/optee-build/imx-boot/imx-optee-os/lib/libutils/isoc/newlib/memcpy.c:112
    1650:	f9400066 	ldr	x6, [x3]
    1654:	f9000086 	str	x6, [x4]
/home/atmark/optee-build/imx-boot/imx-optee-os/lib/libutils/isoc/newlib/memcpy.c:113
    1658:	91008063 	add	x3, x3, #0x20
    165c:	91008084 	add	x4, x4, #0x20
    1660:	f85e8066 	ldur	x6, [x3, #-24]
    1664:	f81e8086 	stur	x6, [x4, #-24]
/home/atmark/optee-build/imx-boot/imx-optee-os/lib/libutils/isoc/newlib/memcpy.c:114
    1668:	f85f0066 	ldur	x6, [x3, #-16]
    166c:	f81f0086 	stur	x6, [x4, #-16]
/home/atmark/optee-build/imx-boot/imx-optee-os/lib/libutils/isoc/newlib/memcpy.c:115
    1670:	f85f8066 	ldur	x6, [x3, #-8]
    1674:	f81f8086 	stur	x6, [x4, #-8]
/home/atmark/optee-build/imx-boot/imx-optee-os/lib/libutils/isoc/newlib/memcpy.c:111
    1678:	eb0400ff 	cmp	x7, x4
    167c:	54fffea1 	b.ne	1650 <memcpy+0x30>  // b.any
/home/atmark/optee-build/imx-boot/imx-optee-os/lib/libutils/isoc/newlib/memcpy.c:115
    1680:	8b080021 	add	x1, x1, x8
/home/atmark/optee-build/imx-boot/imx-optee-os/lib/libutils/isoc/newlib/memcpy.c:116
    1684:	92401043 	and	x3, x2, #0x1f
/home/atmark/optee-build/imx-boot/imx-optee-os/lib/libutils/isoc/newlib/memcpy.c:120
    1688:	f27d045f 	tst	x2, #0x18
    168c:	540003c0 	b.eq	1704 <memcpy+0xe4>  // b.none
/home/atmark/optee-build/imx-boot/imx-optee-os/lib/libutils/isoc/newlib/memcpy.c:121
    1690:	f8656826 	ldr	x6, [x1, x5]
    1694:	f8256886 	str	x6, [x4, x5]
/home/atmark/optee-build/imx-boot/imx-optee-os/lib/libutils/isoc/newlib/memcpy.c:120
    1698:	910020a5 	add	x5, x5, #0x8
    169c:	cb050066 	sub	x6, x3, x5
    16a0:	f1001cdf 	cmp	x6, #0x7
    16a4:	54ffff68 	b.hi	1690 <memcpy+0x70>  // b.pmore
    16a8:	d1002063 	sub	x3, x3, #0x8
/home/atmark/optee-build/imx-boot/imx-optee-os/lib/libutils/isoc/newlib/memcpy.c:122
    16ac:	92400842 	and	x2, x2, #0x7
    16b0:	927df063 	and	x3, x3, #0xfffffffffffffff8
/home/atmark/optee-build/imx-boot/imx-optee-os/lib/libutils/isoc/newlib/memcpy.c:130
    16b4:	d1000446 	sub	x6, x2, #0x1
    16b8:	91002063 	add	x3, x3, #0x8
/home/atmark/optee-build/imx-boot/imx-optee-os/lib/libutils/isoc/newlib/memcpy.c:121
    16bc:	8b030084 	add	x4, x4, x3
    16c0:	8b030021 	add	x1, x1, x3
/home/atmark/optee-build/imx-boot/imx-optee-os/lib/libutils/isoc/newlib/memcpy.c:130
    16c4:	b4000102 	cbz	x2, 16e4 <memcpy+0xc4>
/home/atmark/optee-build/imx-boot/imx-optee-os/lib/libutils/isoc/newlib/memcpy.c:99
    16c8:	d2800002 	mov	x2, #0x0                   	// #0
    16cc:	d503201f 	nop
/home/atmark/optee-build/imx-boot/imx-optee-os/lib/libutils/isoc/newlib/memcpy.c:131
    16d0:	38626825 	ldrb	w5, [x1, x2]
/home/atmark/optee-build/imx-boot/imx-optee-os/lib/libutils/isoc/newlib/memcpy.c:130
    16d4:	eb0200df 	cmp	x6, x2
/home/atmark/optee-build/imx-boot/imx-optee-os/lib/libutils/isoc/newlib/memcpy.c:131
    16d8:	38226885 	strb	w5, [x4, x2]
/home/atmark/optee-build/imx-boot/imx-optee-os/lib/libutils/isoc/newlib/memcpy.c:130
    16dc:	91000442 	add	x2, x2, #0x1
    16e0:	54ffff81 	b.ne	16d0 <memcpy+0xb0>  // b.any
/home/atmark/optee-build/imx-boot/imx-optee-os/lib/libutils/isoc/newlib/memcpy.c:135
    16e4:	d65f03c0 	ret
/home/atmark/optee-build/imx-boot/imx-optee-os/lib/libutils/isoc/newlib/memcpy.c:99
    16e8:	aa0003e4 	mov	x4, x0
/home/atmark/optee-build/imx-boot/imx-optee-os/lib/libutils/isoc/newlib/memcpy.c:130
    16ec:	d1000446 	sub	x6, x2, #0x1
    16f0:	b5fffec2 	cbnz	x2, 16c8 <memcpy+0xa8>
/home/atmark/optee-build/imx-boot/imx-optee-os/lib/libutils/isoc/newlib/memcpy.c:135
    16f4:	d65f03c0 	ret
/home/atmark/optee-build/imx-boot/imx-optee-os/lib/libutils/isoc/newlib/memcpy.c:130
    16f8:	d1000446 	sub	x6, x2, #0x1
/home/atmark/optee-build/imx-boot/imx-optee-os/lib/libutils/isoc/newlib/memcpy.c:99
    16fc:	aa0003e4 	mov	x4, x0
    1700:	17fffff2 	b	16c8 <memcpy+0xa8>
/home/atmark/optee-build/imx-boot/imx-optee-os/lib/libutils/isoc/newlib/memcpy.c:120
    1704:	aa0303e2 	mov	x2, x3
    1708:	17fffff9 	b	16ec <memcpy+0xcc>
    170c:	00000000 	udf	#0

0000000000001710 <memset>:
memset():
/home/atmark/optee-build/imx-boot/imx-optee-os/lib/libutils/isoc/newlib/memset.c:86
    1710:	f240081f 	tst	x0, #0x7
    1714:	540006a0 	b.eq	17e8 <memset+0xd8>  // b.none
/home/atmark/optee-build/imx-boot/imx-optee-os/lib/libutils/isoc/newlib/memset.c:87
    1718:	d1000444 	sub	x4, x2, #0x1
/home/atmark/optee-build/imx-boot/imx-optee-os/lib/libutils/isoc/newlib/memset.c:88
    171c:	12001c25 	and	w5, w1, #0xff
/home/atmark/optee-build/imx-boot/imx-optee-os/lib/libutils/isoc/newlib/memset.c:77
    1720:	aa0003e3 	mov	x3, x0
/home/atmark/optee-build/imx-boot/imx-optee-os/lib/libutils/isoc/newlib/memset.c:87
    1724:	b50000a2 	cbnz	x2, 1738 <memset+0x28>
    1728:	1400002f 	b	17e4 <memset+0xd4>
    172c:	d1000484 	sub	x4, x4, #0x1
    1730:	b100049f 	cmn	x4, #0x1
    1734:	54000580 	b.eq	17e4 <memset+0xd4>  // b.none
/home/atmark/optee-build/imx-boot/imx-optee-os/lib/libutils/isoc/newlib/memset.c:88
    1738:	38001465 	strb	w5, [x3], #1
/home/atmark/optee-build/imx-boot/imx-optee-os/lib/libutils/isoc/newlib/memset.c:86
    173c:	f240087f 	tst	x3, #0x7
    1740:	54ffff61 	b.ne	172c <memset+0x1c>  // b.any
/home/atmark/optee-build/imx-boot/imx-optee-os/lib/libutils/isoc/newlib/memset.c:93
    1744:	f1001c9f 	cmp	x4, #0x7
    1748:	54000409 	b.ls	17c8 <memset+0xb8>  // b.plast
/home/atmark/optee-build/imx-boot/imx-optee-os/lib/libutils/isoc/newlib/memset.c:83
    174c:	12001c22 	and	w2, w1, #0xff
/home/atmark/optee-build/imx-boot/imx-optee-os/lib/libutils/isoc/newlib/memset.c:102
    1750:	53181c25 	ubfiz	w5, w1, #8, #8
    1754:	2a0200a5 	orr	w5, w5, w2
/home/atmark/optee-build/imx-boot/imx-optee-os/lib/libutils/isoc/newlib/memset.c:103
    1758:	53103ca2 	lsl	w2, w5, #16
    175c:	aa050042 	orr	x2, x2, x5
/home/atmark/optee-build/imx-boot/imx-optee-os/lib/libutils/isoc/newlib/memset.c:105
    1760:	aa028042 	orr	x2, x2, x2, lsl #32
/home/atmark/optee-build/imx-boot/imx-optee-os/lib/libutils/isoc/newlib/memset.c:108
    1764:	f1007c9f 	cmp	x4, #0x1f
    1768:	54000469 	b.ls	17f4 <memset+0xe4>  // b.plast
    176c:	d1008085 	sub	x5, x4, #0x20
    1770:	927be8a5 	and	x5, x5, #0xffffffffffffffe0
    1774:	910080a5 	add	x5, x5, #0x20
    1778:	8b050065 	add	x5, x3, x5
    177c:	d503201f 	nop
/home/atmark/optee-build/imx-boot/imx-optee-os/lib/libutils/isoc/newlib/memset.c:110
    1780:	a9000862 	stp	x2, x2, [x3]
/home/atmark/optee-build/imx-boot/imx-optee-os/lib/libutils/isoc/newlib/memset.c:111
    1784:	91008063 	add	x3, x3, #0x20
    1788:	f81f0062 	stur	x2, [x3, #-16]
/home/atmark/optee-build/imx-boot/imx-optee-os/lib/libutils/isoc/newlib/memset.c:112
    178c:	f81f8062 	stur	x2, [x3, #-8]
/home/atmark/optee-build/imx-boot/imx-optee-os/lib/libutils/isoc/newlib/memset.c:108
    1790:	eb05007f 	cmp	x3, x5
    1794:	54ffff61 	b.ne	1780 <memset+0x70>  // b.any
/home/atmark/optee-build/imx-boot/imx-optee-os/lib/libutils/isoc/newlib/memset.c:113
    1798:	92401086 	and	x6, x4, #0x1f
/home/atmark/optee-build/imx-boot/imx-optee-os/lib/libutils/isoc/newlib/memset.c:116
    179c:	927d0487 	and	x7, x4, #0x18
    17a0:	aa0603e4 	mov	x4, x6
    17a4:	b4000127 	cbz	x7, 17c8 <memset+0xb8>
    17a8:	d10020c3 	sub	x3, x6, #0x8
    17ac:	927df063 	and	x3, x3, #0xfffffffffffffff8
    17b0:	91002063 	add	x3, x3, #0x8
    17b4:	8b0300a3 	add	x3, x5, x3
/home/atmark/optee-build/imx-boot/imx-optee-os/lib/libutils/isoc/newlib/memset.c:117
    17b8:	f80084a2 	str	x2, [x5], #8
/home/atmark/optee-build/imx-boot/imx-optee-os/lib/libutils/isoc/newlib/memset.c:116
    17bc:	eb05007f 	cmp	x3, x5
    17c0:	54ffffc1 	b.ne	17b8 <memset+0xa8>  // b.any
/home/atmark/optee-build/imx-boot/imx-optee-os/lib/libutils/isoc/newlib/memset.c:118
    17c4:	924008c4 	and	x4, x6, #0x7
/home/atmark/optee-build/imx-boot/imx-optee-os/lib/libutils/isoc/newlib/memset.c:125
    17c8:	b40000e4 	cbz	x4, 17e4 <memset+0xd4>
/home/atmark/optee-build/imx-boot/imx-optee-os/lib/libutils/isoc/newlib/memset.c:88
    17cc:	12001c21 	and	w1, w1, #0xff
    17d0:	8b040064 	add	x4, x3, x4
    17d4:	d503201f 	nop
/home/atmark/optee-build/imx-boot/imx-optee-os/lib/libutils/isoc/newlib/memset.c:126
    17d8:	38001461 	strb	w1, [x3], #1
/home/atmark/optee-build/imx-boot/imx-optee-os/lib/libutils/isoc/newlib/memset.c:125
    17dc:	eb03009f 	cmp	x4, x3
    17e0:	54ffffc1 	b.ne	17d8 <memset+0xc8>  // b.any
/home/atmark/optee-build/imx-boot/imx-optee-os/lib/libutils/isoc/newlib/memset.c:129
    17e4:	d65f03c0 	ret
/home/atmark/optee-build/imx-boot/imx-optee-os/lib/libutils/isoc/newlib/memset.c:86
    17e8:	aa0203e4 	mov	x4, x2
/home/atmark/optee-build/imx-boot/imx-optee-os/lib/libutils/isoc/newlib/memset.c:77
    17ec:	aa0003e3 	mov	x3, x0
    17f0:	17ffffd5 	b	1744 <memset+0x34>
/home/atmark/optee-build/imx-boot/imx-optee-os/lib/libutils/isoc/newlib/memset.c:108
    17f4:	aa0303e5 	mov	x5, x3
    17f8:	aa0403e6 	mov	x6, x4
    17fc:	17ffffeb 	b	17a8 <memset+0x98>

0000000000001800 <strnlen>:
strnlen():
/home/atmark/optee-build/imx-boot/imx-optee-os/lib/libutils/isoc/newlib/strnlen.c:77
    1800:	8b010003 	add	x3, x0, x1
    1804:	aa0003e2 	mov	x2, x0
    1808:	b50000a1 	cbnz	x1, 181c <strnlen+0x1c>
    180c:	1400000a 	b	1834 <strnlen+0x34>
/home/atmark/optee-build/imx-boot/imx-optee-os/lib/libutils/isoc/newlib/strnlen.c:78
    1810:	91000442 	add	x2, x2, #0x1
/home/atmark/optee-build/imx-boot/imx-optee-os/lib/libutils/isoc/newlib/strnlen.c:77
    1814:	eb02007f 	cmp	x3, x2
    1818:	540000a0 	b.eq	182c <strnlen+0x2c>  // b.none
/home/atmark/optee-build/imx-boot/imx-optee-os/lib/libutils/isoc/newlib/strnlen.c:77 (discriminator 1)
    181c:	39400041 	ldrb	w1, [x2]
    1820:	35ffff81 	cbnz	w1, 1810 <strnlen+0x10>
/home/atmark/optee-build/imx-boot/imx-optee-os/lib/libutils/isoc/newlib/strnlen.c:80
    1824:	cb000040 	sub	x0, x2, x0
/home/atmark/optee-build/imx-boot/imx-optee-os/lib/libutils/isoc/newlib/strnlen.c:81
    1828:	d65f03c0 	ret
/home/atmark/optee-build/imx-boot/imx-optee-os/lib/libutils/isoc/newlib/strnlen.c:80
    182c:	cb000060 	sub	x0, x3, x0
/home/atmark/optee-build/imx-boot/imx-optee-os/lib/libutils/isoc/newlib/strnlen.c:81
    1830:	d65f03c0 	ret
/home/atmark/optee-build/imx-boot/imx-optee-os/lib/libutils/isoc/newlib/strnlen.c:77
    1834:	d2800000 	mov	x0, #0x0                   	// #0
/home/atmark/optee-build/imx-boot/imx-optee-os/lib/libutils/isoc/newlib/strnlen.c:81
    1838:	d65f03c0 	ret
    183c:	00000000 	udf	#0

0000000000001840 <trace_set_level>:
trace_set_level():
/home/atmark/optee-build/imx-boot/imx-optee-os/lib/libutils/ext/trace.c:26
    1840:	900000a1 	adrp	x1, 15000 <_DYNAMIC>
/home/atmark/optee-build/imx-boot/imx-optee-os/lib/libutils/ext/trace.c:29
    1844:	7100141f 	cmp	w0, #0x5
    1848:	52800082 	mov	w2, #0x4                   	// #4
    184c:	1a823000 	csel	w0, w0, w2, cc  // cc = lo, ul, last
    1850:	f9409c21 	ldr	x1, [x1, #312]
    1854:	b9000020 	str	w0, [x1]
/home/atmark/optee-build/imx-boot/imx-optee-os/lib/libutils/ext/trace.c:30
    1858:	d65f03c0 	ret
    185c:	d503201f 	nop

0000000000001860 <trace_get_level>:
trace_get_level():
/home/atmark/optee-build/imx-boot/imx-optee-os/lib/libutils/ext/trace.c:34
    1860:	900000a0 	adrp	x0, 15000 <_DYNAMIC>
    1864:	f9409c00 	ldr	x0, [x0, #312]
/home/atmark/optee-build/imx-boot/imx-optee-os/lib/libutils/ext/trace.c:35
    1868:	b9400000 	ldr	w0, [x0]
    186c:	d65f03c0 	ret

0000000000001870 <trace_vprintf>:
trace_vprintf():
/home/atmark/optee-build/imx-boot/imx-optee-os/lib/libutils/ext/trace.c:106
    1870:	a9a87bfd 	stp	x29, x30, [sp, #-384]!
    1874:	910003fd 	mov	x29, sp
    1878:	a9025bf5 	stp	x21, x22, [sp, #32]
    187c:	2a0203f5 	mov	w21, w2
    1880:	aa0503f6 	mov	x22, x5
    1884:	a90363f7 	stp	x23, x24, [sp, #48]
    1888:	aa0003f8 	mov	x24, x0
    188c:	aa0403f7 	mov	x23, x4
    1890:	a9046bf9 	stp	x25, x26, [sp, #64]
    1894:	2a0103f9 	mov	w25, w1
/home/atmark/optee-build/imx-boot/imx-optee-os/lib/libutils/ext/trace.c:111
    1898:	72001c7a 	ands	w26, w3, #0xff
    189c:	54000ac0 	b.eq	19f4 <trace_vprintf+0x184>  // b.none
/home/atmark/optee-build/imx-boot/imx-optee-os/lib/libutils/ext/trace.c:111 (discriminator 1)
    18a0:	900000a3 	adrp	x3, 15000 <_DYNAMIC>
    18a4:	f9409c63 	ldr	x3, [x3, #312]
    18a8:	b9400060 	ldr	w0, [x3]
    18ac:	6b02001f 	cmp	w0, w2
    18b0:	5400098b 	b.lt	19e0 <trace_vprintf+0x170>  // b.tstop
    18b4:	a90153f3 	stp	x19, x20, [sp, #16]
trace_level_to_string():
/home/atmark/optee-build/imx-boot/imx-optee-os/lib/libutils/ext/trace.c:52
    18b8:	52800aa3 	mov	w3, #0x55                  	// #85
    18bc:	7100105f 	cmp	w2, #0x4
    18c0:	54000088 	b.hi	18d0 <trace_vprintf+0x60>  // b.pmore
/home/atmark/optee-build/imx-boot/imx-optee-os/lib/libutils/ext/trace.c:55
    18c4:	d0000080 	adrp	x0, 13000 <__text_end+0x3174>
    18c8:	91316000 	add	x0, x0, #0xc58
trace_vprintf():
/home/atmark/optee-build/imx-boot/imx-optee-os/lib/libutils/ext/trace.c:115
    18cc:	3862c803 	ldrb	w3, [x0, w2, sxtw]
    18d0:	910203f4 	add	x20, sp, #0x80
    18d4:	d0000082 	adrp	x2, 13000 <__text_end+0x3174>
    18d8:	aa1403e0 	mov	x0, x20
    18dc:	9130c042 	add	x2, x2, #0xc30
    18e0:	d2802001 	mov	x1, #0x100                 	// #256
    18e4:	940000e7 	bl	1c80 <snprintk>
/home/atmark/optee-build/imx-boot/imx-optee-os/lib/libutils/ext/trace.c:117
    18e8:	37f80980 	tbnz	w0, #31, 1a18 <trace_vprintf+0x1a8>
/home/atmark/optee-build/imx-boot/imx-optee-os/lib/libutils/ext/trace.c:122
    18ec:	900000a3 	adrp	x3, 15000 <_DYNAMIC>
/home/atmark/optee-build/imx-boot/imx-optee-os/lib/libutils/ext/trace.c:119
    18f0:	93407c13 	sxtw	x19, w0
/home/atmark/optee-build/imx-boot/imx-optee-os/lib/libutils/ext/trace.c:122
    18f4:	d0000082 	adrp	x2, 13000 <__text_end+0x3174>
    18f8:	8b130280 	add	x0, x20, x19
    18fc:	f940a063 	ldr	x3, [x3, #320]
    1900:	9130e042 	add	x2, x2, #0xc38
    1904:	f9002bfb 	str	x27, [sp, #80]
    1908:	d280201b 	mov	x27, #0x100                 	// #256
    190c:	cb130361 	sub	x1, x27, x19
    1910:	940000dc 	bl	1c80 <snprintk>
/home/atmark/optee-build/imx-boot/imx-optee-os/lib/libutils/ext/trace.c:124
    1914:	37f80e60 	tbnz	w0, #31, 1ae0 <trace_vprintf+0x270>
/home/atmark/optee-build/imx-boot/imx-optee-os/lib/libutils/ext/trace.c:126
    1918:	8b20c273 	add	x19, x19, w0, sxtw
/home/atmark/optee-build/imx-boot/imx-optee-os/lib/libutils/ext/trace.c:128
    191c:	340008ba 	cbz	w26, 1a30 <trace_vprintf+0x1c0>
/home/atmark/optee-build/imx-boot/imx-optee-os/lib/libutils/ext/trace.c:128 (discriminator 1)
    1920:	52800340 	mov	w0, #0x1a                  	// #26
    1924:	1ad52415 	lsr	w21, w0, w21
    1928:	36000855 	tbz	w21, #0, 1a30 <trace_vprintf+0x1c0>
print_thread_id():
/home/atmark/optee-build/imx-boot/imx-optee-os/lib/libutils/ext/trace.c:65
    192c:	94000535 	bl	2e00 <trace_ext_get_thread_id>
    1930:	2a0003e4 	mov	w4, w0
trace_vprintf():
/home/atmark/optee-build/imx-boot/imx-optee-os/lib/libutils/ext/trace.c:130
    1934:	cb130361 	sub	x1, x27, x19
    1938:	8b130280 	add	x0, x20, x19
print_thread_id():
/home/atmark/optee-build/imx-boot/imx-optee-os/lib/libutils/ext/trace.c:67
    193c:	37f80ec4 	tbnz	w4, #31, 1b14 <trace_vprintf+0x2a4>
/home/atmark/optee-build/imx-boot/imx-optee-os/lib/libutils/ext/trace.c:68
    1940:	d0000082 	adrp	x2, 13000 <__text_end+0x3174>
    1944:	52800023 	mov	w3, #0x1                   	// #1
    1948:	91310042 	add	x2, x2, #0xc40
    194c:	940000cd 	bl	1c80 <snprintk>
trace_vprintf():
/home/atmark/optee-build/imx-boot/imx-optee-os/lib/libutils/ext/trace.c:137
    1950:	37f80c80 	tbnz	w0, #31, 1ae0 <trace_vprintf+0x270>
/home/atmark/optee-build/imx-boot/imx-optee-os/lib/libutils/ext/trace.c:139
    1954:	8b20c275 	add	x21, x19, w0, sxtw
/home/atmark/optee-build/imx-boot/imx-optee-os/lib/libutils/ext/trace.c:142
    1958:	d2802013 	mov	x19, #0x100                 	// #256
    195c:	8b150280 	add	x0, x20, x21
    1960:	cb150261 	sub	x1, x19, x21
/home/atmark/optee-build/imx-boot/imx-optee-os/lib/libutils/ext/trace.c:141
    1964:	b4000158 	cbz	x24, 198c <trace_vprintf+0x11c>
/home/atmark/optee-build/imx-boot/imx-optee-os/lib/libutils/ext/trace.c:142
    1968:	d0000082 	adrp	x2, 13000 <__text_end+0x3174>
    196c:	2a1903e4 	mov	w4, w25
    1970:	aa1803e3 	mov	x3, x24
    1974:	91314042 	add	x2, x2, #0xc50
    1978:	940000c2 	bl	1c80 <snprintk>
/home/atmark/optee-build/imx-boot/imx-optee-os/lib/libutils/ext/trace.c:144
    197c:	37f80b20 	tbnz	w0, #31, 1ae0 <trace_vprintf+0x270>
/home/atmark/optee-build/imx-boot/imx-optee-os/lib/libutils/ext/trace.c:146
    1980:	8b20c2b5 	add	x21, x21, w0, sxtw
/home/atmark/optee-build/imx-boot/imx-optee-os/lib/libutils/ext/trace.c:156
    1984:	cb150261 	sub	x1, x19, x21
    1988:	8b150280 	add	x0, x20, x21
    198c:	a9401ac7 	ldp	x7, x6, [x22]
    1990:	aa1703e2 	mov	x2, x23
    1994:	a94112c5 	ldp	x5, x4, [x22, #16]
    1998:	910183e3 	add	x3, sp, #0x60
    199c:	a9061be7 	stp	x7, x6, [sp, #96]
    19a0:	a90713e5 	stp	x5, x4, [sp, #112]
    19a4:	940000a7 	bl	1c40 <vsnprintk>
/home/atmark/optee-build/imx-boot/imx-optee-os/lib/libutils/ext/trace.c:157
    19a8:	7100001f 	cmp	w0, #0x0
    19ac:	5400066c 	b.gt	1a78 <trace_vprintf+0x208>
/home/atmark/optee-build/imx-boot/imx-optee-os/lib/libutils/ext/trace.c:160
    19b0:	f103fabf 	cmp	x21, #0xfe
    19b4:	d2801fc0 	mov	x0, #0xfe                  	// #254
    19b8:	9a8092a0 	csel	x0, x21, x0, ls  // ls = plast
/home/atmark/optee-build/imx-boot/imx-optee-os/lib/libutils/ext/trace.c:163
    19bc:	52800141 	mov	w1, #0xa                   	// #10
    19c0:	38206a81 	strb	w1, [x20, x0]
/home/atmark/optee-build/imx-boot/imx-optee-os/lib/libutils/ext/trace.c:164
    19c4:	b50006b5 	cbnz	x21, 1a98 <trace_vprintf+0x228>
    19c8:	d2800041 	mov	x1, #0x2                   	// #2
/home/atmark/optee-build/imx-boot/imx-optee-os/lib/libutils/ext/trace.c:169
    19cc:	aa1403e0 	mov	x0, x20
/home/atmark/optee-build/imx-boot/imx-optee-os/lib/libutils/ext/trace.c:167
    19d0:	38216a9f 	strb	wzr, [x20, x1]
/home/atmark/optee-build/imx-boot/imx-optee-os/lib/libutils/ext/trace.c:169
    19d4:	940004ff 	bl	2dd0 <trace_ext_puts>
    19d8:	a94153f3 	ldp	x19, x20, [sp, #16]
    19dc:	f9402bfb 	ldr	x27, [sp, #80]
/home/atmark/optee-build/imx-boot/imx-optee-os/lib/libutils/ext/trace.c:170
    19e0:	a9425bf5 	ldp	x21, x22, [sp, #32]
    19e4:	a94363f7 	ldp	x23, x24, [sp, #48]
    19e8:	a9446bf9 	ldp	x25, x26, [sp, #64]
    19ec:	a8d87bfd 	ldp	x29, x30, [sp], #384
    19f0:	d65f03c0 	ret
    19f4:	a90153f3 	stp	x19, x20, [sp, #16]
/home/atmark/optee-build/imx-boot/imx-optee-os/lib/libutils/ext/trace.c:115
    19f8:	910203f4 	add	x20, sp, #0x80
    19fc:	d0000082 	adrp	x2, 13000 <__text_end+0x3174>
    1a00:	aa1403e0 	mov	x0, x20
    1a04:	9130c042 	add	x2, x2, #0xc30
    1a08:	528009a3 	mov	w3, #0x4d                  	// #77
    1a0c:	d2802001 	mov	x1, #0x100                 	// #256
    1a10:	9400009c 	bl	1c80 <snprintk>
/home/atmark/optee-build/imx-boot/imx-optee-os/lib/libutils/ext/trace.c:117
    1a14:	36fff6c0 	tbz	w0, #31, 18ec <trace_vprintf+0x7c>
    1a18:	a94153f3 	ldp	x19, x20, [sp, #16]
/home/atmark/optee-build/imx-boot/imx-optee-os/lib/libutils/ext/trace.c:170
    1a1c:	a9425bf5 	ldp	x21, x22, [sp, #32]
    1a20:	a94363f7 	ldp	x23, x24, [sp, #48]
    1a24:	a9446bf9 	ldp	x25, x26, [sp, #64]
    1a28:	a8d87bfd 	ldp	x29, x30, [sp], #384
    1a2c:	d65f03c0 	ret
/home/atmark/optee-build/imx-boot/imx-optee-os/lib/libutils/ext/trace.c:150
    1a30:	f103fa7f 	cmp	x19, #0xfe
    1a34:	54000568 	b.hi	1ae0 <trace_vprintf+0x270>  // b.pmore
/home/atmark/optee-build/imx-boot/imx-optee-os/lib/libutils/ext/trace.c:156
    1a38:	a9401ac7 	ldp	x7, x6, [x22]
/home/atmark/optee-build/imx-boot/imx-optee-os/lib/libutils/ext/trace.c:152
    1a3c:	91000675 	add	x21, x19, #0x1
/home/atmark/optee-build/imx-boot/imx-optee-os/lib/libutils/ext/trace.c:156
    1a40:	a94112c5 	ldp	x5, x4, [x22, #16]
/home/atmark/optee-build/imx-boot/imx-optee-os/lib/libutils/ext/trace.c:152
    1a44:	52800400 	mov	w0, #0x20                  	// #32
    1a48:	38336a80 	strb	w0, [x20, x19]
/home/atmark/optee-build/imx-boot/imx-optee-os/lib/libutils/ext/trace.c:156
    1a4c:	d2802001 	mov	x1, #0x100                 	// #256
/home/atmark/optee-build/imx-boot/imx-optee-os/lib/libutils/ext/trace.c:153
    1a50:	38356a9f 	strb	wzr, [x20, x21]
/home/atmark/optee-build/imx-boot/imx-optee-os/lib/libutils/ext/trace.c:156
    1a54:	aa1703e2 	mov	x2, x23
    1a58:	cb150021 	sub	x1, x1, x21
    1a5c:	8b150280 	add	x0, x20, x21
    1a60:	910183e3 	add	x3, sp, #0x60
    1a64:	a9061be7 	stp	x7, x6, [sp, #96]
    1a68:	a90713e5 	stp	x5, x4, [sp, #112]
    1a6c:	94000075 	bl	1c40 <vsnprintk>
/home/atmark/optee-build/imx-boot/imx-optee-os/lib/libutils/ext/trace.c:157
    1a70:	7100001f 	cmp	w0, #0x0
    1a74:	5400044d 	b.le	1afc <trace_vprintf+0x28c>
/home/atmark/optee-build/imx-boot/imx-optee-os/lib/libutils/ext/trace.c:158
    1a78:	8b20c2a0 	add	x0, x21, w0, sxtw
/home/atmark/optee-build/imx-boot/imx-optee-os/lib/libutils/ext/trace.c:160
    1a7c:	d2801fc2 	mov	x2, #0xfe                  	// #254
    1a80:	eb02001f 	cmp	x0, x2
/home/atmark/optee-build/imx-boot/imx-optee-os/lib/libutils/ext/trace.c:163
    1a84:	52800141 	mov	w1, #0xa                   	// #10
    1a88:	9a829000 	csel	x0, x0, x2, ls  // ls = plast
    1a8c:	38206a81 	strb	w1, [x20, x0]
/home/atmark/optee-build/imx-boot/imx-optee-os/lib/libutils/ext/trace.c:164
    1a90:	14000002 	b	1a98 <trace_vprintf+0x228>
    1a94:	aa0203e0 	mov	x0, x2
    1a98:	8b000281 	add	x1, x20, x0
    1a9c:	f100041f 	cmp	x0, #0x1
    1aa0:	54fff940 	b.eq	19c8 <trace_vprintf+0x158>  // b.none
    1aa4:	385ff021 	ldurb	w1, [x1, #-1]
    1aa8:	d1000402 	sub	x2, x0, #0x1
    1aac:	7100283f 	cmp	w1, #0xa
    1ab0:	54ffff20 	b.eq	1a94 <trace_vprintf+0x224>  // b.none
/home/atmark/optee-build/imx-boot/imx-optee-os/lib/libutils/ext/trace.c:167
    1ab4:	91000401 	add	x1, x0, #0x1
/home/atmark/optee-build/imx-boot/imx-optee-os/lib/libutils/ext/trace.c:169
    1ab8:	aa1403e0 	mov	x0, x20
/home/atmark/optee-build/imx-boot/imx-optee-os/lib/libutils/ext/trace.c:167
    1abc:	38216a9f 	strb	wzr, [x20, x1]
/home/atmark/optee-build/imx-boot/imx-optee-os/lib/libutils/ext/trace.c:169
    1ac0:	940004c4 	bl	2dd0 <trace_ext_puts>
    1ac4:	a94153f3 	ldp	x19, x20, [sp, #16]
/home/atmark/optee-build/imx-boot/imx-optee-os/lib/libutils/ext/trace.c:170
    1ac8:	a9425bf5 	ldp	x21, x22, [sp, #32]
    1acc:	a94363f7 	ldp	x23, x24, [sp, #48]
    1ad0:	a9446bf9 	ldp	x25, x26, [sp, #64]
    1ad4:	f9402bfb 	ldr	x27, [sp, #80]
    1ad8:	a8d87bfd 	ldp	x29, x30, [sp], #384
    1adc:	d65f03c0 	ret
    1ae0:	a94153f3 	ldp	x19, x20, [sp, #16]
    1ae4:	a9425bf5 	ldp	x21, x22, [sp, #32]
    1ae8:	a94363f7 	ldp	x23, x24, [sp, #48]
    1aec:	a9446bf9 	ldp	x25, x26, [sp, #64]
    1af0:	f9402bfb 	ldr	x27, [sp, #80]
    1af4:	a8d87bfd 	ldp	x29, x30, [sp], #384
    1af8:	d65f03c0 	ret
/home/atmark/optee-build/imx-boot/imx-optee-os/lib/libutils/ext/trace.c:160
    1afc:	f103fabf 	cmp	x21, #0xfe
    1b00:	d2801fc0 	mov	x0, #0xfe                  	// #254
    1b04:	9a8092a0 	csel	x0, x21, x0, ls  // ls = plast
/home/atmark/optee-build/imx-boot/imx-optee-os/lib/libutils/ext/trace.c:163
    1b08:	52800141 	mov	w1, #0xa                   	// #10
    1b0c:	38206a81 	strb	w1, [x20, x0]
/home/atmark/optee-build/imx-boot/imx-optee-os/lib/libutils/ext/trace.c:164
    1b10:	17ffffe2 	b	1a98 <trace_vprintf+0x228>
print_thread_id():
/home/atmark/optee-build/imx-boot/imx-optee-os/lib/libutils/ext/trace.c:70
    1b14:	d0000084 	adrp	x4, 13000 <__text_end+0x3174>
    1b18:	d0000082 	adrp	x2, 13000 <__text_end+0x3174>
    1b1c:	912a2084 	add	x4, x4, #0xa88
    1b20:	91312042 	add	x2, x2, #0xc48
    1b24:	52800023 	mov	w3, #0x1                   	// #1
    1b28:	94000056 	bl	1c80 <snprintk>
    1b2c:	17ffff89 	b	1950 <trace_vprintf+0xe0>

0000000000001b30 <trace_printf>:
trace_printf():
/home/atmark/optee-build/imx-boot/imx-optee-os/lib/libutils/ext/trace.c:97
    1b30:	a9b17bfd 	stp	x29, x30, [sp, #-240]!
/home/atmark/optee-build/imx-boot/imx-optee-os/lib/libutils/ext/trace.c:100
    1b34:	128002e9 	mov	w9, #0xffffffe8            	// #-24
    1b38:	12800fe8 	mov	w8, #0xffffff80            	// #-128
/home/atmark/optee-build/imx-boot/imx-optee-os/lib/libutils/ext/trace.c:97
    1b3c:	910003fd 	mov	x29, sp
/home/atmark/optee-build/imx-boot/imx-optee-os/lib/libutils/ext/trace.c:100
    1b40:	910343ea 	add	x10, sp, #0xd0
    1b44:	9103c3eb 	add	x11, sp, #0xf0
    1b48:	a9032feb 	stp	x11, x11, [sp, #48]
    1b4c:	f90023ea 	str	x10, [sp, #64]
    1b50:	290923e9 	stp	w9, w8, [sp, #72]
/home/atmark/optee-build/imx-boot/imx-optee-os/lib/libutils/ext/trace.c:101
    1b54:	a9432fea 	ldp	x10, x11, [sp, #48]
    1b58:	a9012fea 	stp	x10, x11, [sp, #16]
    1b5c:	a94427e8 	ldp	x8, x9, [sp, #64]
    1b60:	a90227e8 	stp	x8, x9, [sp, #32]
/home/atmark/optee-build/imx-boot/imx-optee-os/lib/libutils/ext/trace.c:97
    1b64:	3d8017e0 	str	q0, [sp, #80]
    1b68:	3d801be1 	str	q1, [sp, #96]
    1b6c:	3d801fe2 	str	q2, [sp, #112]
    1b70:	3d8023e3 	str	q3, [sp, #128]
    1b74:	3d8027e4 	str	q4, [sp, #144]
    1b78:	3d802be5 	str	q5, [sp, #160]
    1b7c:	3d802fe6 	str	q6, [sp, #176]
    1b80:	3d8033e7 	str	q7, [sp, #192]
    1b84:	a90d9be5 	stp	x5, x6, [sp, #216]
/home/atmark/optee-build/imx-boot/imx-optee-os/lib/libutils/ext/trace.c:101
    1b88:	910043e5 	add	x5, sp, #0x10
/home/atmark/optee-build/imx-boot/imx-optee-os/lib/libutils/ext/trace.c:97
    1b8c:	f90077e7 	str	x7, [sp, #232]
/home/atmark/optee-build/imx-boot/imx-optee-os/lib/libutils/ext/trace.c:101
    1b90:	97ffff38 	bl	1870 <trace_vprintf>
/home/atmark/optee-build/imx-boot/imx-optee-os/lib/libutils/ext/trace.c:103
    1b94:	a8cf7bfd 	ldp	x29, x30, [sp], #240
    1b98:	d65f03c0 	ret
    1b9c:	d503201f 	nop

0000000000001ba0 <dhex_dump>:
dhex_dump():
/home/atmark/optee-build/imx-boot/imx-optee-os/lib/libutils/ext/trace.c:280
    1ba0:	d65f03c0 	ret
	...

0000000000001bb0 <__vsnprintf>:
__vsnprintf():
/home/atmark/optee-build/imx-boot/imx-optee-os/lib/libutils/ext/snprintk.c:138
    1bb0:	a9ba7bfd 	stp	x29, x30, [sp, #-96]!
    1bb4:	aa0303e5 	mov	x5, x3
    1bb8:	910003fd 	mov	x29, sp
/home/atmark/optee-build/imx-boot/imx-optee-os/lib/libutils/ext/snprintk.c:143
    1bbc:	a9401c68 	ldp	x8, x7, [x3]
/home/atmark/optee-build/imx-boot/imx-optee-os/lib/libutils/ext/snprintk.c:138
    1bc0:	a90153f3 	stp	x19, x20, [sp, #16]
    1bc4:	aa0003f3 	mov	x19, x0
/home/atmark/optee-build/imx-boot/imx-optee-os/lib/libutils/ext/snprintk.c:143
    1bc8:	f9400866 	ldr	x6, [x3, #16]
/home/atmark/optee-build/imx-boot/imx-optee-os/lib/libutils/ext/snprintk.c:138
    1bcc:	aa0103f4 	mov	x20, x1
/home/atmark/optee-build/imx-boot/imx-optee-os/lib/libutils/ext/snprintk.c:143
    1bd0:	f9400ca5 	ldr	x5, [x5, #24]
/home/atmark/optee-build/imx-boot/imx-optee-os/lib/libutils/ext/snprintk.c:138
    1bd4:	aa0203e0 	mov	x0, x2
/home/atmark/optee-build/imx-boot/imx-optee-os/lib/libutils/ext/snprintk.c:143
    1bd8:	9100c3e3 	add	x3, sp, #0x30
    1bdc:	aa1303e2 	mov	x2, x19
/home/atmark/optee-build/imx-boot/imx-optee-os/lib/libutils/ext/snprintk.c:138
    1be0:	f90013f5 	str	x21, [sp, #32]
/home/atmark/optee-build/imx-boot/imx-optee-os/lib/libutils/ext/snprintk.c:142
    1be4:	8b010275 	add	x21, x19, x1
/home/atmark/optee-build/imx-boot/imx-optee-os/lib/libutils/ext/snprintk.c:143
    1be8:	910163e1 	add	x1, sp, #0x58
    1bec:	a9031fe8 	stp	x8, x7, [sp, #48]
    1bf0:	a90417e6 	stp	x6, x5, [sp, #64]
/home/atmark/optee-build/imx-boot/imx-optee-os/lib/libutils/ext/snprintk.c:142
    1bf4:	f9002ff5 	str	x21, [sp, #88]
/home/atmark/optee-build/imx-boot/imx-optee-os/lib/libutils/ext/snprintk.c:143
    1bf8:	9400003e 	bl	1cf0 <kprintf.constprop.0>
/home/atmark/optee-build/imx-boot/imx-optee-os/lib/libutils/ext/snprintk.c:144
    1bfc:	f100027f 	cmp	x19, #0x0
    1c00:	fa401a84 	ccmp	x20, #0x0, #0x4, ne  // ne = any
    1c04:	54000080 	b.eq	1c14 <__vsnprintf+0x64>  // b.none
/home/atmark/optee-build/imx-boot/imx-optee-os/lib/libutils/ext/snprintk.c:146
    1c08:	eb20c29f 	cmp	x20, w0, sxtw
    1c0c:	540000c8 	b.hi	1c24 <__vsnprintf+0x74>  // b.pmore
/home/atmark/optee-build/imx-boot/imx-optee-os/lib/libutils/ext/snprintk.c:147
    1c10:	381ff2bf 	sturb	wzr, [x21, #-1]
/home/atmark/optee-build/imx-boot/imx-optee-os/lib/libutils/ext/snprintk.c:152
    1c14:	a94153f3 	ldp	x19, x20, [sp, #16]
    1c18:	f94013f5 	ldr	x21, [sp, #32]
    1c1c:	a8c67bfd 	ldp	x29, x30, [sp], #96
    1c20:	d65f03c0 	ret
/home/atmark/optee-build/imx-boot/imx-optee-os/lib/libutils/ext/snprintk.c:149
    1c24:	3820ca7f 	strb	wzr, [x19, w0, sxtw]
/home/atmark/optee-build/imx-boot/imx-optee-os/lib/libutils/ext/snprintk.c:152
    1c28:	a94153f3 	ldp	x19, x20, [sp, #16]
    1c2c:	f94013f5 	ldr	x21, [sp, #32]
    1c30:	a8c67bfd 	ldp	x29, x30, [sp], #96
    1c34:	d65f03c0 	ret
    1c38:	d503201f 	nop
    1c3c:	d503201f 	nop

0000000000001c40 <vsnprintk>:
vsnprintk():
/home/atmark/optee-build/imx-boot/imx-optee-os/lib/libutils/ext/snprintk.c:130
    1c40:	aa0303e5 	mov	x5, x3
    1c44:	a9bd7bfd 	stp	x29, x30, [sp, #-48]!
/home/atmark/optee-build/imx-boot/imx-optee-os/lib/libutils/ext/snprintk.c:131
    1c48:	52800024 	mov	w4, #0x1                   	// #1
/home/atmark/optee-build/imx-boot/imx-optee-os/lib/libutils/ext/snprintk.c:130
    1c4c:	910003fd 	mov	x29, sp
/home/atmark/optee-build/imx-boot/imx-optee-os/lib/libutils/ext/snprintk.c:131
    1c50:	f94000a6 	ldr	x6, [x5]
    1c54:	f9000be6 	str	x6, [sp, #16]
    1c58:	910043e3 	add	x3, sp, #0x10
    1c5c:	f94004a6 	ldr	x6, [x5, #8]
    1c60:	f9000fe6 	str	x6, [sp, #24]
    1c64:	f94008a6 	ldr	x6, [x5, #16]
    1c68:	f90013e6 	str	x6, [sp, #32]
    1c6c:	f9400ca5 	ldr	x5, [x5, #24]
    1c70:	f90017e5 	str	x5, [sp, #40]
    1c74:	97ffffcf 	bl	1bb0 <__vsnprintf>
/home/atmark/optee-build/imx-boot/imx-optee-os/lib/libutils/ext/snprintk.c:132
    1c78:	a8c37bfd 	ldp	x29, x30, [sp], #48
    1c7c:	d65f03c0 	ret

0000000000001c80 <snprintk>:
snprintk():
/home/atmark/optee-build/imx-boot/imx-optee-os/lib/libutils/ext/snprintk.c:113
    1c80:	a9b07bfd 	stp	x29, x30, [sp, #-256]!
/home/atmark/optee-build/imx-boot/imx-optee-os/lib/libutils/ext/snprintk.c:117
    1c84:	128004e9 	mov	w9, #0xffffffd8            	// #-40
    1c88:	12800fe8 	mov	w8, #0xffffff80            	// #-128
/home/atmark/optee-build/imx-boot/imx-optee-os/lib/libutils/ext/snprintk.c:113
    1c8c:	910003fd 	mov	x29, sp
/home/atmark/optee-build/imx-boot/imx-optee-os/lib/libutils/ext/snprintk.c:117
    1c90:	910343ea 	add	x10, sp, #0xd0
    1c94:	910403eb 	add	x11, sp, #0x100
    1c98:	a9032feb 	stp	x11, x11, [sp, #48]
    1c9c:	f90023ea 	str	x10, [sp, #64]
    1ca0:	290923e9 	stp	w9, w8, [sp, #72]
/home/atmark/optee-build/imx-boot/imx-optee-os/lib/libutils/ext/snprintk.c:118
    1ca4:	a9432fea 	ldp	x10, x11, [sp, #48]
    1ca8:	a9012fea 	stp	x10, x11, [sp, #16]
    1cac:	a94427e8 	ldp	x8, x9, [sp, #64]
    1cb0:	a90227e8 	stp	x8, x9, [sp, #32]
/home/atmark/optee-build/imx-boot/imx-optee-os/lib/libutils/ext/snprintk.c:113
    1cb4:	3d8017e0 	str	q0, [sp, #80]
    1cb8:	3d801be1 	str	q1, [sp, #96]
    1cbc:	3d801fe2 	str	q2, [sp, #112]
    1cc0:	3d8023e3 	str	q3, [sp, #128]
    1cc4:	3d8027e4 	str	q4, [sp, #144]
    1cc8:	3d802be5 	str	q5, [sp, #160]
    1ccc:	3d802fe6 	str	q6, [sp, #176]
    1cd0:	3d8033e7 	str	q7, [sp, #192]
    1cd4:	a90d93e3 	stp	x3, x4, [sp, #216]
/home/atmark/optee-build/imx-boot/imx-optee-os/lib/libutils/ext/snprintk.c:118
    1cd8:	910043e3 	add	x3, sp, #0x10
/home/atmark/optee-build/imx-boot/imx-optee-os/lib/libutils/ext/snprintk.c:113
    1cdc:	a90e9be5 	stp	x5, x6, [sp, #232]
    1ce0:	f9007fe7 	str	x7, [sp, #248]
/home/atmark/optee-build/imx-boot/imx-optee-os/lib/libutils/ext/snprintk.c:118
    1ce4:	97ffffd7 	bl	1c40 <vsnprintk>
/home/atmark/optee-build/imx-boot/imx-optee-os/lib/libutils/ext/snprintk.c:122
    1ce8:	a8d07bfd 	ldp	x29, x30, [sp], #256
    1cec:	d65f03c0 	ret

0000000000001cf0 <kprintf.constprop.0>:
kprintf():
/home/atmark/optee-build/imx-boot/imx-optee-os/lib/libutils/ext/snprintk.c:242
    1cf0:	d103c3ff 	sub	sp, sp, #0xf0
    1cf4:	a9037bfd 	stp	x29, x30, [sp, #48]
    1cf8:	9100c3fd 	add	x29, sp, #0x30
    1cfc:	b9401869 	ldr	w9, [x3, #24]
    1d00:	a90453f3 	stp	x19, x20, [sp, #64]
    1d04:	aa0203f3 	mov	x19, x2
    1d08:	a9055bf5 	stp	x21, x22, [sp, #80]
    1d0c:	aa0003f5 	mov	x21, x0
    1d10:	12001c80 	and	w0, w4, #0xff
    1d14:	a90663f7 	stp	x23, x24, [sp, #96]
    1d18:	aa0103f6 	mov	x22, x1
    1d1c:	d2800017 	mov	x23, #0x0                   	// #0
    1d20:	a9076bf9 	stp	x25, x26, [sp, #112]
    1d24:	a90873fb 	stp	x27, x28, [sp, #128]
    1d28:	b9009fe0 	str	w0, [sp, #156]
    1d2c:	a9403468 	ldp	x8, x13, [x3]
/home/atmark/optee-build/imx-boot/imx-optee-os/lib/libutils/ext/snprintk.c:264
    1d30:	b4000041 	cbz	x1, 1d38 <kprintf.constprop.0+0x48>
/home/atmark/optee-build/imx-boot/imx-optee-os/lib/libutils/ext/snprintk.c:265
    1d34:	f9400037 	ldr	x23, [x1]
/home/atmark/optee-build/imx-boot/imx-optee-os/lib/libutils/ext/snprintk.c:275
    1d38:	d000008b 	adrp	x11, 13000 <__text_end+0x3174>
/home/atmark/optee-build/imx-boot/imx-optee-os/lib/libutils/ext/snprintk.c:523
    1d3c:	b202e7f9 	mov	x25, #0xcccccccccccccccc    	// #-3689348814741910324
    1d40:	9132816b 	add	x11, x11, #0xca0
/home/atmark/optee-build/imx-boot/imx-optee-os/lib/libutils/ext/snprintk.c:275
    1d44:	d280000a 	mov	x10, #0x0                   	// #0
/home/atmark/optee-build/imx-boot/imx-optee-os/lib/libutils/ext/snprintk.c:273
    1d48:	5280001c 	mov	w28, #0x0                   	// #0
/home/atmark/optee-build/imx-boot/imx-optee-os/lib/libutils/ext/snprintk.c:523
    1d4c:	f29999b9 	movk	x25, #0xcccd
/home/atmark/optee-build/imx-boot/imx-optee-os/lib/libutils/ext/snprintk.c:281
    1d50:	394002a0 	ldrb	w0, [x21]
    1d54:	7100941f 	cmp	w0, #0x25
    1d58:	7a401804 	ccmp	w0, #0x0, #0x4, ne  // ne = any
    1d5c:	54000c21 	b.ne	1ee0 <kprintf.constprop.0+0x1f0>  // b.any
/home/atmark/optee-build/imx-boot/imx-optee-os/lib/libutils/ext/snprintk.c:285
    1d60:	34003d20 	cbz	w0, 2504 <kprintf.constprop.0+0x814>
/home/atmark/optee-build/imx-boot/imx-optee-os/lib/libutils/ext/snprintk.c:296
    1d64:	394006ae 	ldrb	w14, [x21, #1]
/home/atmark/optee-build/imx-boot/imx-optee-os/lib/libutils/ext/snprintk.c:293
    1d68:	12800018 	mov	w24, #0xffffffff            	// #-1
/home/atmark/optee-build/imx-boot/imx-optee-os/lib/libutils/ext/snprintk.c:288
    1d6c:	910006b5 	add	x21, x21, #0x1
/home/atmark/optee-build/imx-boot/imx-optee-os/lib/libutils/ext/snprintk.c:330
    1d70:	2a1803e2 	mov	w2, w24
/home/atmark/optee-build/imx-boot/imx-optee-os/lib/libutils/ext/snprintk.c:294
    1d74:	52800004 	mov	w4, #0x0                   	// #0
/home/atmark/optee-build/imx-boot/imx-optee-os/lib/libutils/ext/snprintk.c:292
    1d78:	5280001b 	mov	w27, #0x0                   	// #0
/home/atmark/optee-build/imx-boot/imx-optee-os/lib/libutils/ext/snprintk.c:290
    1d7c:	5280001a 	mov	w26, #0x0                   	// #0
/home/atmark/optee-build/imx-boot/imx-optee-os/lib/libutils/ext/snprintk.c:305
    1d80:	52800401 	mov	w1, #0x20                  	// #32
/home/atmark/optee-build/imx-boot/imx-optee-os/lib/libutils/ext/snprintk.c:296
    1d84:	910006b5 	add	x21, x21, #0x1
/home/atmark/optee-build/imx-boot/imx-optee-os/lib/libutils/ext/snprintk.c:297
    1d88:	510081c0 	sub	w0, w14, #0x20
    1d8c:	7101681f 	cmp	w0, #0x5a
    1d90:	54000b89 	b.ls	1f00 <kprintf.constprop.0+0x210>  // b.plast
/home/atmark/optee-build/imx-boot/imx-optee-os/lib/libutils/ext/snprintk.c:547
    1d94:	34003b8e 	cbz	w14, 2504 <kprintf.constprop.0+0x814>
/home/atmark/optee-build/imx-boot/imx-optee-os/lib/libutils/ext/snprintk.c:554
    1d98:	52800038 	mov	w24, #0x1                   	// #1
/home/atmark/optee-build/imx-boot/imx-optee-os/lib/libutils/ext/snprintk.c:550
    1d9c:	910323f4 	add	x20, sp, #0xc8
/home/atmark/optee-build/imx-boot/imx-optee-os/lib/libutils/ext/snprintk.c:552
    1da0:	2a1803e6 	mov	w6, w24
/home/atmark/optee-build/imx-boot/imx-optee-os/lib/libutils/ext/snprintk.c:554
    1da4:	52800003 	mov	w3, #0x0                   	// #0
    1da8:	12800020 	mov	w0, #0xfffffffe            	// #-2
    1dac:	1280000f 	mov	w15, #0xffffffff            	// #-1
/home/atmark/optee-build/imx-boot/imx-optee-os/lib/libutils/ext/snprintk.c:551
    1db0:	390323ee 	strb	w14, [sp, #200]
/home/atmark/optee-build/imx-boot/imx-optee-os/lib/libutils/ext/snprintk.c:554
    1db4:	d503201f 	nop
/home/atmark/optee-build/imx-boot/imx-optee-os/lib/libutils/ext/snprintk.c:574
    1db8:	52800004 	mov	w4, #0x0                   	// #0
    1dbc:	3608005a 	tbz	w26, #1, 1dc4 <kprintf.constprop.0+0xd4>
/home/atmark/optee-build/imx-boot/imx-optee-os/lib/libutils/ext/snprintk.c:575
    1dc0:	11000b18 	add	w24, w24, #0x2
/home/atmark/optee-build/imx-boot/imx-optee-os/lib/libutils/ext/snprintk.c:578
    1dc4:	6b1b031f 	cmp	w24, w27
/home/atmark/optee-build/imx-boot/imx-optee-os/lib/libutils/ext/snprintk.c:581
    1dc8:	52808081 	mov	w1, #0x404                 	// #1028
/home/atmark/optee-build/imx-boot/imx-optee-os/lib/libutils/ext/snprintk.c:578
    1dcc:	1a9ba302 	csel	w2, w24, w27, ge  // ge = tcont
/home/atmark/optee-build/imx-boot/imx-optee-os/lib/libutils/ext/snprintk.c:581
    1dd0:	6a010347 	ands	w7, w26, w1
/home/atmark/optee-build/imx-boot/imx-optee-os/lib/libutils/ext/snprintk.c:578
    1dd4:	0b02039c 	add	w28, w28, w2
/home/atmark/optee-build/imx-boot/imx-optee-os/lib/libutils/ext/snprintk.c:581
    1dd8:	540009c0 	b.eq	1f10 <kprintf.constprop.0+0x220>  // b.none
/home/atmark/optee-build/imx-boot/imx-optee-os/lib/libutils/ext/snprintk.c:588
    1ddc:	34000ba4 	cbz	w4, 1f50 <kprintf.constprop.0+0x260>
/home/atmark/optee-build/imx-boot/imx-optee-os/lib/libutils/ext/snprintk.c:589
    1de0:	b4003653 	cbz	x19, 24a8 <kprintf.constprop.0+0x7b8>
    1de4:	f10002df 	cmp	x22, #0x0
    1de8:	fa5312e2 	ccmp	x23, x19, #0x2, ne  // ne = any
    1dec:	54000049 	b.ls	1df4 <kprintf.constprop.0+0x104>  // b.plast
    1df0:	38001664 	strb	w4, [x19], #1
/home/atmark/optee-build/imx-boot/imx-optee-os/lib/libutils/ext/snprintk.c:596
    1df4:	711000ff 	cmp	w7, #0x400
    1df8:	54000d00 	b.eq	1f98 <kprintf.constprop.0+0x2a8>  // b.none
/home/atmark/optee-build/imx-boot/imx-optee-os/lib/libutils/ext/snprintk.c:604
    1dfc:	710001ff 	cmp	w15, #0x0
    1e00:	5400016d 	b.le	1e2c <kprintf.constprop.0+0x13c>
/home/atmark/optee-build/imx-boot/imx-optee-os/lib/libutils/ext/snprintk.c:605
    1e04:	52800601 	mov	w1, #0x30                  	// #48
    1e08:	2a0003e2 	mov	w2, w0
/home/atmark/optee-build/imx-boot/imx-optee-os/lib/libutils/ext/snprintk.c:604
    1e0c:	51000400 	sub	w0, w0, #0x1
/home/atmark/optee-build/imx-boot/imx-optee-os/lib/libutils/ext/snprintk.c:605
    1e10:	b4006853 	cbz	x19, 2b18 <kprintf.constprop.0+0xe28>
    1e14:	f10002df 	cmp	x22, #0x0
    1e18:	fa5312e2 	ccmp	x23, x19, #0x2, ne  // ne = any
    1e1c:	54000049 	b.ls	1e24 <kprintf.constprop.0+0x134>  // b.plast
    1e20:	38001661 	strb	w1, [x19], #1
/home/atmark/optee-build/imx-boot/imx-optee-os/lib/libutils/ext/snprintk.c:604
    1e24:	7100005f 	cmp	w2, #0x0
    1e28:	54ffff0c 	b.gt	1e08 <kprintf.constprop.0+0x118>
/home/atmark/optee-build/imx-boot/imx-optee-os/lib/libutils/ext/snprintk.c:608
    1e2c:	340001c6 	cbz	w6, 1e64 <kprintf.constprop.0+0x174>
    1e30:	91000680 	add	x0, x20, #0x1
    1e34:	51000464 	sub	w4, w3, #0x1
/home/atmark/optee-build/imx-boot/imx-optee-os/lib/libutils/ext/snprintk.c:609
    1e38:	b40032d3 	cbz	x19, 2490 <kprintf.constprop.0+0x7a0>
    1e3c:	f10002df 	cmp	x22, #0x0
    1e40:	fa5312e2 	ccmp	x23, x19, #0x2, ne  // ne = any
    1e44:	540031a9 	b.ls	2478 <kprintf.constprop.0+0x788>  // b.plast
    1e48:	39400281 	ldrb	w1, [x20]
    1e4c:	2a0403e2 	mov	w2, w4
    1e50:	38001661 	strb	w1, [x19], #1
    1e54:	2a0303e4 	mov	w4, w3
    1e58:	aa0003f4 	mov	x20, x0
/home/atmark/optee-build/imx-boot/imx-optee-os/lib/libutils/ext/snprintk.c:608
    1e5c:	2a0203e3 	mov	w3, w2
    1e60:	35fffe84 	cbnz	w4, 1e30 <kprintf.constprop.0+0x140>
/home/atmark/optee-build/imx-boot/imx-optee-os/lib/libutils/ext/snprintk.c:611
    1e64:	3617f77a 	tbz	w26, #2, 1d50 <kprintf.constprop.0+0x60>
/home/atmark/optee-build/imx-boot/imx-optee-os/lib/libutils/ext/snprintk.c:612
    1e68:	4b180378 	sub	w24, w27, w24
/home/atmark/optee-build/imx-boot/imx-optee-os/lib/libutils/ext/snprintk.c:613
    1e6c:	51000700 	sub	w0, w24, #0x1
    1e70:	7100031f 	cmp	w24, #0x0
    1e74:	54fff6ed 	b.le	1d50 <kprintf.constprop.0+0x60>
/home/atmark/optee-build/imx-boot/imx-optee-os/lib/libutils/ext/snprintk.c:614
    1e78:	2a0003e1 	mov	w1, w0
    1e7c:	52800402 	mov	w2, #0x20                  	// #32
/home/atmark/optee-build/imx-boot/imx-optee-os/lib/libutils/ext/snprintk.c:613
    1e80:	51000400 	sub	w0, w0, #0x1
/home/atmark/optee-build/imx-boot/imx-optee-os/lib/libutils/ext/snprintk.c:614
    1e84:	b4000153 	cbz	x19, 1eac <kprintf.constprop.0+0x1bc>
    1e88:	f10002df 	cmp	x22, #0x0
    1e8c:	fa5312e2 	ccmp	x23, x19, #0x2, ne  // ne = any
    1e90:	54000049 	b.ls	1e98 <kprintf.constprop.0+0x1a8>  // b.plast
    1e94:	38001662 	strb	w2, [x19], #1
/home/atmark/optee-build/imx-boot/imx-optee-os/lib/libutils/ext/snprintk.c:613
    1e98:	7100003f 	cmp	w1, #0x0
    1e9c:	54fff5ad 	b.le	1d50 <kprintf.constprop.0+0x60>
/home/atmark/optee-build/imx-boot/imx-optee-os/lib/libutils/ext/snprintk.c:614
    1ea0:	2a0003e1 	mov	w1, w0
/home/atmark/optee-build/imx-boot/imx-optee-os/lib/libutils/ext/snprintk.c:613
    1ea4:	51000400 	sub	w0, w0, #0x1
/home/atmark/optee-build/imx-boot/imx-optee-os/lib/libutils/ext/snprintk.c:614
    1ea8:	b5ffff13 	cbnz	x19, 1e88 <kprintf.constprop.0+0x198>
/home/atmark/optee-build/imx-boot/imx-optee-os/lib/libutils/ext/snprintk.c:613
    1eac:	7100003f 	cmp	w1, #0x0
    1eb0:	54fff50d 	b.le	1d50 <kprintf.constprop.0+0x60>
    1eb4:	51000401 	sub	w1, w0, #0x1
    1eb8:	7100001f 	cmp	w0, #0x0
    1ebc:	54fff4ad 	b.le	1d50 <kprintf.constprop.0+0x60>
    1ec0:	51000800 	sub	w0, w0, #0x2
    1ec4:	7100003f 	cmp	w1, #0x0
    1ec8:	54ffff6c 	b.gt	1eb4 <kprintf.constprop.0+0x1c4>
/home/atmark/optee-build/imx-boot/imx-optee-os/lib/libutils/ext/snprintk.c:281
    1ecc:	394002a0 	ldrb	w0, [x21]
    1ed0:	7100941f 	cmp	w0, #0x25
    1ed4:	7a401804 	ccmp	w0, #0x0, #0x4, ne  // ne = any
    1ed8:	54fff440 	b.eq	1d60 <kprintf.constprop.0+0x70>  // b.none
    1edc:	d503201f 	nop
/home/atmark/optee-build/imx-boot/imx-optee-os/lib/libutils/ext/snprintk.c:282
    1ee0:	1100079c 	add	w28, w28, #0x1
/home/atmark/optee-build/imx-boot/imx-optee-os/lib/libutils/ext/snprintk.c:283
    1ee4:	b40000b3 	cbz	x19, 1ef8 <kprintf.constprop.0+0x208>
    1ee8:	f10002df 	cmp	x22, #0x0
    1eec:	fa571260 	ccmp	x19, x23, #0x0, ne  // ne = any
    1ef0:	54000042 	b.cs	1ef8 <kprintf.constprop.0+0x208>  // b.hs, b.nlast
    1ef4:	38001660 	strb	w0, [x19], #1
/home/atmark/optee-build/imx-boot/imx-optee-os/lib/libutils/ext/snprintk.c:281
    1ef8:	910006b5 	add	x21, x21, #0x1
    1efc:	17ffff95 	b	1d50 <kprintf.constprop.0+0x60>
    1f00:	78605960 	ldrh	w0, [x11, w0, uxtw #1]
    1f04:	10000063 	adr	x3, 1f10 <kprintf.constprop.0+0x220>
    1f08:	8b20a860 	add	x0, x3, w0, sxth #2
    1f0c:	d61f0000 	br	x0
/home/atmark/optee-build/imx-boot/imx-optee-os/lib/libutils/ext/snprintk.c:582
    1f10:	4b180362 	sub	w2, w27, w24
/home/atmark/optee-build/imx-boot/imx-optee-os/lib/libutils/ext/snprintk.c:583
    1f14:	51000441 	sub	w1, w2, #0x1
    1f18:	7100005f 	cmp	w2, #0x0
    1f1c:	54fff60d 	b.le	1ddc <kprintf.constprop.0+0xec>
/home/atmark/optee-build/imx-boot/imx-optee-os/lib/libutils/ext/snprintk.c:584
    1f20:	52800402 	mov	w2, #0x20                  	// #32
    1f24:	2a0103e5 	mov	w5, w1
/home/atmark/optee-build/imx-boot/imx-optee-os/lib/libutils/ext/snprintk.c:583
    1f28:	51000421 	sub	w1, w1, #0x1
/home/atmark/optee-build/imx-boot/imx-optee-os/lib/libutils/ext/snprintk.c:584
    1f2c:	b4000733 	cbz	x19, 2010 <kprintf.constprop.0+0x320>
    1f30:	f10002df 	cmp	x22, #0x0
    1f34:	fa5312e2 	ccmp	x23, x19, #0x2, ne  // ne = any
    1f38:	54000049 	b.ls	1f40 <kprintf.constprop.0+0x250>  // b.plast
    1f3c:	38001662 	strb	w2, [x19], #1
/home/atmark/optee-build/imx-boot/imx-optee-os/lib/libutils/ext/snprintk.c:583
    1f40:	710000bf 	cmp	w5, #0x0
    1f44:	54ffff0c 	b.gt	1f24 <kprintf.constprop.0+0x234>
/home/atmark/optee-build/imx-boot/imx-optee-os/lib/libutils/ext/snprintk.c:588
    1f48:	35fff4e4 	cbnz	w4, 1de4 <kprintf.constprop.0+0xf4>
    1f4c:	d503201f 	nop
/home/atmark/optee-build/imx-boot/imx-optee-os/lib/libutils/ext/snprintk.c:590
    1f50:	360ff53a 	tbz	w26, #1, 1df4 <kprintf.constprop.0+0x104>
/home/atmark/optee-build/imx-boot/imx-optee-os/lib/libutils/ext/snprintk.c:591
    1f54:	b4002ab3 	cbz	x19, 24a8 <kprintf.constprop.0+0x7b8>
    1f58:	f10002df 	cmp	x22, #0x0
    1f5c:	1a9f17e1 	cset	w1, eq  // eq = none
    1f60:	7100003f 	cmp	w1, #0x0
    1f64:	fa5302e2 	ccmp	x23, x19, #0x2, eq  // eq = none
    1f68:	54fff469 	b.ls	1df4 <kprintf.constprop.0+0x104>  // b.plast
    1f6c:	aa1303e2 	mov	x2, x19
    1f70:	52800604 	mov	w4, #0x30                  	// #48
/home/atmark/optee-build/imx-boot/imx-optee-os/lib/libutils/ext/snprintk.c:592
    1f74:	7100003f 	cmp	w1, #0x0
/home/atmark/optee-build/imx-boot/imx-optee-os/lib/libutils/ext/snprintk.c:591
    1f78:	38001444 	strb	w4, [x2], #1
/home/atmark/optee-build/imx-boot/imx-optee-os/lib/libutils/ext/snprintk.c:592
    1f7c:	fa4202e2 	ccmp	x23, x2, #0x2, eq  // eq = none
    1f80:	54005ec9 	b.ls	2b58 <kprintf.constprop.0+0xe68>  // b.plast
    1f84:	3900066e 	strb	w14, [x19, #1]
    1f88:	91000a73 	add	x19, x19, #0x2
/home/atmark/optee-build/imx-boot/imx-optee-os/lib/libutils/ext/snprintk.c:596
    1f8c:	711000ff 	cmp	w7, #0x400
    1f90:	54fff361 	b.ne	1dfc <kprintf.constprop.0+0x10c>  // b.any
    1f94:	d503201f 	nop
/home/atmark/optee-build/imx-boot/imx-optee-os/lib/libutils/ext/snprintk.c:597
    1f98:	4b180362 	sub	w2, w27, w24
/home/atmark/optee-build/imx-boot/imx-optee-os/lib/libutils/ext/snprintk.c:598
    1f9c:	51000441 	sub	w1, w2, #0x1
    1fa0:	7100005f 	cmp	w2, #0x0
    1fa4:	54fff2cd 	b.le	1dfc <kprintf.constprop.0+0x10c>
/home/atmark/optee-build/imx-boot/imx-optee-os/lib/libutils/ext/snprintk.c:599
    1fa8:	2a0103e2 	mov	w2, w1
    1fac:	52800604 	mov	w4, #0x30                  	// #48
/home/atmark/optee-build/imx-boot/imx-optee-os/lib/libutils/ext/snprintk.c:598
    1fb0:	51000421 	sub	w1, w1, #0x1
/home/atmark/optee-build/imx-boot/imx-optee-os/lib/libutils/ext/snprintk.c:599
    1fb4:	b4000153 	cbz	x19, 1fdc <kprintf.constprop.0+0x2ec>
    1fb8:	f10002df 	cmp	x22, #0x0
    1fbc:	fa5312e2 	ccmp	x23, x19, #0x2, ne  // ne = any
    1fc0:	54000049 	b.ls	1fc8 <kprintf.constprop.0+0x2d8>  // b.plast
    1fc4:	38001664 	strb	w4, [x19], #1
/home/atmark/optee-build/imx-boot/imx-optee-os/lib/libutils/ext/snprintk.c:598
    1fc8:	7100005f 	cmp	w2, #0x0
    1fcc:	54fff18d 	b.le	1dfc <kprintf.constprop.0+0x10c>
/home/atmark/optee-build/imx-boot/imx-optee-os/lib/libutils/ext/snprintk.c:599
    1fd0:	2a0103e2 	mov	w2, w1
/home/atmark/optee-build/imx-boot/imx-optee-os/lib/libutils/ext/snprintk.c:598
    1fd4:	51000421 	sub	w1, w1, #0x1
/home/atmark/optee-build/imx-boot/imx-optee-os/lib/libutils/ext/snprintk.c:599
    1fd8:	b5ffff13 	cbnz	x19, 1fb8 <kprintf.constprop.0+0x2c8>
/home/atmark/optee-build/imx-boot/imx-optee-os/lib/libutils/ext/snprintk.c:604
    1fdc:	51000401 	sub	w1, w0, #0x1
    1fe0:	710001ff 	cmp	w15, #0x0
    1fe4:	54fff24d 	b.le	1e2c <kprintf.constprop.0+0x13c>
    1fe8:	7100001f 	cmp	w0, #0x0
    1fec:	540000ed 	b.le	2008 <kprintf.constprop.0+0x318>
    1ff0:	51000420 	sub	w0, w1, #0x1
    1ff4:	7100003f 	cmp	w1, #0x0
    1ff8:	5400008d 	b.le	2008 <kprintf.constprop.0+0x318>
    1ffc:	51000821 	sub	w1, w1, #0x2
    2000:	7100001f 	cmp	w0, #0x0
    2004:	54ffff6c 	b.gt	1ff0 <kprintf.constprop.0+0x300>
    2008:	d2800013 	mov	x19, #0x0                   	// #0
    200c:	17ffff88 	b	1e2c <kprintf.constprop.0+0x13c>
/home/atmark/optee-build/imx-boot/imx-optee-os/lib/libutils/ext/snprintk.c:583
    2010:	710000bf 	cmp	w5, #0x0
    2014:	540000ed 	b.le	2030 <kprintf.constprop.0+0x340>
    2018:	51000425 	sub	w5, w1, #0x1
    201c:	7100003f 	cmp	w1, #0x0
    2020:	5400242d 	b.le	24a4 <kprintf.constprop.0+0x7b4>
    2024:	51000821 	sub	w1, w1, #0x2
    2028:	710000bf 	cmp	w5, #0x0
    202c:	54ffff6c 	b.gt	2018 <kprintf.constprop.0+0x328>
/home/atmark/optee-build/imx-boot/imx-optee-os/lib/libutils/ext/snprintk.c:604
    2030:	710001ff 	cmp	w15, #0x0
    2034:	54ffefcd 	b.le	1e2c <kprintf.constprop.0+0x13c>
    2038:	51000401 	sub	w1, w0, #0x1
    203c:	17ffffeb 	b	1fe8 <kprintf.constprop.0+0x2f8>
    2040:	5100c1c0 	sub	w0, w14, #0x30
/home/atmark/optee-build/imx-boot/imx-optee-os/lib/libutils/ext/snprintk.c:333
    2044:	5280001b 	mov	w27, #0x0                   	// #0
/home/atmark/optee-build/imx-boot/imx-optee-os/lib/libutils/ext/snprintk.c:353
    2048:	384016ae 	ldrb	w14, [x21], #1
/home/atmark/optee-build/imx-boot/imx-optee-os/lib/libutils/ext/snprintk.c:352
    204c:	0b1b0b7b 	add	w27, w27, w27, lsl #2
    2050:	0b1b041b 	add	w27, w0, w27, lsl #1
/home/atmark/optee-build/imx-boot/imx-optee-os/lib/libutils/ext/snprintk.c:354
    2054:	5100c1c0 	sub	w0, w14, #0x30
    2058:	7100241f 	cmp	w0, #0x9
    205c:	54ffff69 	b.ls	2048 <kprintf.constprop.0+0x358>  // b.plast
    2060:	17ffff4a 	b	1d88 <kprintf.constprop.0+0x98>
/home/atmark/optee-build/imx-boot/imx-optee-os/lib/libutils/ext/snprintk.c:386
    2064:	321c035a 	orr	w26, w26, #0x10
/home/atmark/optee-build/imx-boot/imx-optee-os/lib/libutils/ext/snprintk.c:390
    2068:	3738009a 	tbnz	w26, #7, 2078 <kprintf.constprop.0+0x388>
    206c:	3740007a 	tbnz	w26, #8, 2078 <kprintf.constprop.0+0x388>
    2070:	3648383a 	tbz	w26, #9, 2774 <kprintf.constprop.0+0xa84>
    2074:	d503201f 	nop
    2078:	37f828e9 	tbnz	w9, #31, 2594 <kprintf.constprop.0+0x8a4>
    207c:	91003d01 	add	x1, x8, #0xf
    2080:	aa0803e0 	mov	x0, x8
    2084:	927df028 	and	x8, x1, #0xfffffffffffffff8
    2088:	f9400001 	ldr	x1, [x0]
    208c:	aa0103e0 	mov	x0, x1
/home/atmark/optee-build/imx-boot/imx-optee-os/lib/libutils/ext/snprintk.c:391
    2090:	b7f82321 	tbnz	x1, #63, 24f4 <kprintf.constprop.0+0x804>
/home/atmark/optee-build/imx-boot/imx-optee-os/lib/libutils/ext/snprintk.c:494
    2094:	3100071f 	cmn	w24, #0x1
    2098:	54000380 	b.eq	2108 <kprintf.constprop.0+0x418>  // b.none
/home/atmark/optee-build/imx-boot/imx-optee-os/lib/libutils/ext/snprintk.c:503
    209c:	7100031f 	cmp	w24, #0x0
/home/atmark/optee-build/imx-boot/imx-optee-os/lib/libutils/ext/snprintk.c:495
    20a0:	12157b5a 	and	w26, w26, #0xfffffbff
/home/atmark/optee-build/imx-boot/imx-optee-os/lib/libutils/ext/snprintk.c:503
    20a4:	fa400800 	ccmp	x0, #0x0, #0x0, eq  // eq = none
    20a8:	54000301 	b.ne	2108 <kprintf.constprop.0+0x418>  // b.any
/home/atmark/optee-build/imx-boot/imx-optee-os/lib/libutils/ext/snprintk.c:502
    20ac:	9103b7f4 	add	x20, sp, #0xed
/home/atmark/optee-build/imx-boot/imx-optee-os/lib/libutils/ext/snprintk.c:503
    20b0:	52800018 	mov	w24, #0x0                   	// #0
    20b4:	12800003 	mov	w3, #0xffffffff            	// #-1
    20b8:	5280000f 	mov	w15, #0x0                   	// #0
    20bc:	52800006 	mov	w6, #0x0                   	// #0
/home/atmark/optee-build/imx-boot/imx-optee-os/lib/libutils/ext/snprintk.c:571
    20c0:	6b06031f 	cmp	w24, w6
/home/atmark/optee-build/imx-boot/imx-optee-os/lib/libutils/ext/snprintk.c:604
    20c4:	510005e0 	sub	w0, w15, #0x1
/home/atmark/optee-build/imx-boot/imx-optee-os/lib/libutils/ext/snprintk.c:571
    20c8:	1a86a318 	csel	w24, w24, w6, ge  // ge = tcont
/home/atmark/optee-build/imx-boot/imx-optee-os/lib/libutils/ext/snprintk.c:572
    20cc:	34ffe764 	cbz	w4, 1db8 <kprintf.constprop.0+0xc8>
/home/atmark/optee-build/imx-boot/imx-optee-os/lib/libutils/ext/snprintk.c:573
    20d0:	11000718 	add	w24, w24, #0x1
    20d4:	17ffff3c 	b	1dc4 <kprintf.constprop.0+0xd4>
/home/atmark/optee-build/imx-boot/imx-optee-os/lib/libutils/ext/snprintk.c:470
    20d8:	321c035a 	orr	w26, w26, #0x10
/home/atmark/optee-build/imx-boot/imx-optee-os/lib/libutils/ext/snprintk.c:473
    20dc:	3738007a 	tbnz	w26, #7, 20e8 <kprintf.constprop.0+0x3f8>
    20e0:	3740005a 	tbnz	w26, #8, 20e8 <kprintf.constprop.0+0x3f8>
    20e4:	3648335a 	tbz	w26, #9, 274c <kprintf.constprop.0+0xa5c>
    20e8:	37f82249 	tbnz	w9, #31, 2530 <kprintf.constprop.0+0x840>
    20ec:	91003d01 	add	x1, x8, #0xf
    20f0:	aa0803e0 	mov	x0, x8
    20f4:	927df028 	and	x8, x1, #0xfffffffffffffff8
/home/atmark/optee-build/imx-boot/imx-optee-os/lib/libutils/ext/snprintk.c:488
    20f8:	52800004 	mov	w4, #0x0                   	// #0
/home/atmark/optee-build/imx-boot/imx-optee-os/lib/libutils/ext/snprintk.c:473
    20fc:	f9400000 	ldr	x0, [x0]
/home/atmark/optee-build/imx-boot/imx-optee-os/lib/libutils/ext/snprintk.c:494
    2100:	3100071f 	cmn	w24, #0x1
    2104:	54fffcc1 	b.ne	209c <kprintf.constprop.0+0x3ac>  // b.any
/home/atmark/optee-build/imx-boot/imx-optee-os/lib/libutils/ext/snprintk.c:502
    2108:	9103b7e3 	add	x3, sp, #0xed
    210c:	aa0303e5 	mov	x5, x3
/home/atmark/optee-build/imx-boot/imx-optee-os/lib/libutils/ext/snprintk.c:522
    2110:	f100241f 	cmp	x0, #0x9
    2114:	54000169 	b.ls	2140 <kprintf.constprop.0+0x450>  // b.plast
/home/atmark/optee-build/imx-boot/imx-optee-os/lib/libutils/ext/snprintk.c:523
    2118:	9bd97c02 	umulh	x2, x0, x25
    211c:	aa0003e6 	mov	x6, x0
    2120:	d343fc42 	lsr	x2, x2, #3
    2124:	8b020841 	add	x1, x2, x2, lsl #2
    2128:	cb010401 	sub	x1, x0, x1, lsl #1
/home/atmark/optee-build/imx-boot/imx-optee-os/lib/libutils/ext/snprintk.c:524
    212c:	aa0203e0 	mov	x0, x2
/home/atmark/optee-build/imx-boot/imx-optee-os/lib/libutils/ext/snprintk.c:523
    2130:	1100c021 	add	w1, w1, #0x30
    2134:	381ffca1 	strb	w1, [x5, #-1]!
/home/atmark/optee-build/imx-boot/imx-optee-os/lib/libutils/ext/snprintk.c:522
    2138:	f1018cdf 	cmp	x6, #0x63
    213c:	54fffee8 	b.hi	2118 <kprintf.constprop.0+0x428>  // b.pmore
/home/atmark/optee-build/imx-boot/imx-optee-os/lib/libutils/ext/snprintk.c:526
    2140:	d10004b4 	sub	x20, x5, #0x1
    2144:	1100c000 	add	w0, w0, #0x30
/home/atmark/optee-build/imx-boot/imx-optee-os/lib/libutils/ext/snprintk.c:543
    2148:	cb140063 	sub	x3, x3, x20
/home/atmark/optee-build/imx-boot/imx-optee-os/lib/libutils/ext/snprintk.c:526
    214c:	381ff0a0 	sturb	w0, [x5, #-1]
/home/atmark/optee-build/imx-boot/imx-optee-os/lib/libutils/ext/snprintk.c:543
    2150:	2a0303e6 	mov	w6, w3
/home/atmark/optee-build/imx-boot/imx-optee-os/lib/libutils/ext/snprintk.c:603
    2154:	4b03030f 	sub	w15, w24, w3
/home/atmark/optee-build/imx-boot/imx-optee-os/lib/libutils/ext/snprintk.c:608
    2158:	51000463 	sub	w3, w3, #0x1
/home/atmark/optee-build/imx-boot/imx-optee-os/lib/libutils/ext/snprintk.c:527
    215c:	17ffffd9 	b	20c0 <kprintf.constprop.0+0x3d0>
/home/atmark/optee-build/imx-boot/imx-optee-os/lib/libutils/ext/snprintk.c:414
    2160:	321c035a 	orr	w26, w26, #0x10
/home/atmark/optee-build/imx-boot/imx-optee-os/lib/libutils/ext/snprintk.c:417
    2164:	3738007a 	tbnz	w26, #7, 2170 <kprintf.constprop.0+0x480>
    2168:	3740005a 	tbnz	w26, #8, 2170 <kprintf.constprop.0+0x480>
    216c:	36482dfa 	tbz	w26, #9, 2728 <kprintf.constprop.0+0xa38>
    2170:	37f81f09 	tbnz	w9, #31, 2550 <kprintf.constprop.0+0x860>
    2174:	91003d01 	add	x1, x8, #0xf
    2178:	aa0803e0 	mov	x0, x8
    217c:	927df028 	and	x8, x1, #0xfffffffffffffff8
    2180:	f9400000 	ldr	x0, [x0]
/home/atmark/optee-build/imx-boot/imx-optee-os/lib/libutils/ext/snprintk.c:494
    2184:	3100071f 	cmn	w24, #0x1
    2188:	54001940 	b.eq	24b0 <kprintf.constprop.0+0x7c0>  // b.none
/home/atmark/optee-build/imx-boot/imx-optee-os/lib/libutils/ext/snprintk.c:503
    218c:	7100031f 	cmp	w24, #0x0
/home/atmark/optee-build/imx-boot/imx-optee-os/lib/libutils/ext/snprintk.c:495
    2190:	12157b5a 	and	w26, w26, #0xfffffbff
/home/atmark/optee-build/imx-boot/imx-optee-os/lib/libutils/ext/snprintk.c:503
    2194:	fa400800 	ccmp	x0, #0x0, #0x0, eq  // eq = none
    2198:	540018c1 	b.ne	24b0 <kprintf.constprop.0+0x7c0>  // b.any
/home/atmark/optee-build/imx-boot/imx-optee-os/lib/libutils/ext/snprintk.c:502
    219c:	9103b7f4 	add	x20, sp, #0xed
/home/atmark/optee-build/imx-boot/imx-optee-os/lib/libutils/ext/snprintk.c:503
    21a0:	52800018 	mov	w24, #0x0                   	// #0
    21a4:	12800003 	mov	w3, #0xffffffff            	// #-1
    21a8:	5280000f 	mov	w15, #0x0                   	// #0
    21ac:	52800006 	mov	w6, #0x0                   	// #0
/home/atmark/optee-build/imx-boot/imx-optee-os/lib/libutils/ext/snprintk.c:571
    21b0:	6b06031f 	cmp	w24, w6
/home/atmark/optee-build/imx-boot/imx-optee-os/lib/libutils/ext/snprintk.c:604
    21b4:	510005e0 	sub	w0, w15, #0x1
/home/atmark/optee-build/imx-boot/imx-optee-os/lib/libutils/ext/snprintk.c:571
    21b8:	1a86a318 	csel	w24, w24, w6, ge  // ge = tcont
/home/atmark/optee-build/imx-boot/imx-optee-os/lib/libutils/ext/snprintk.c:572
    21bc:	17fffeff 	b	1db8 <kprintf.constprop.0+0xc8>
/home/atmark/optee-build/imx-boot/imx-optee-os/lib/libutils/ext/snprintk.c:296
    21c0:	394002ae 	ldrb	w14, [x21]
/home/atmark/optee-build/imx-boot/imx-optee-os/lib/libutils/ext/snprintk.c:358
    21c4:	321a035a 	orr	w26, w26, #0x40
/home/atmark/optee-build/imx-boot/imx-optee-os/lib/libutils/ext/snprintk.c:359
    21c8:	17fffeef 	b	1d84 <kprintf.constprop.0+0x94>
/home/atmark/optee-build/imx-boot/imx-optee-os/lib/libutils/ext/snprintk.c:296
    21cc:	394002ae 	ldrb	w14, [x21]
/home/atmark/optee-build/imx-boot/imx-optee-os/lib/libutils/ext/snprintk.c:378
    21d0:	3217035a 	orr	w26, w26, #0x200
/home/atmark/optee-build/imx-boot/imx-optee-os/lib/libutils/ext/snprintk.c:379
    21d4:	17fffeec 	b	1d84 <kprintf.constprop.0+0x94>
/home/atmark/optee-build/imx-boot/imx-optee-os/lib/libutils/ext/snprintk.c:296
    21d8:	394002ae 	ldrb	w14, [x21]
/home/atmark/optee-build/imx-boot/imx-optee-os/lib/libutils/ext/snprintk.c:375
    21dc:	3218035a 	orr	w26, w26, #0x100
/home/atmark/optee-build/imx-boot/imx-optee-os/lib/libutils/ext/snprintk.c:376
    21e0:	17fffee9 	b	1d84 <kprintf.constprop.0+0x94>
/home/atmark/optee-build/imx-boot/imx-optee-os/lib/libutils/ext/snprintk.c:448
    21e4:	37f82389 	tbnz	w9, #31, 2654 <kprintf.constprop.0+0x964>
    21e8:	91003d01 	add	x1, x8, #0xf
    21ec:	aa0803e0 	mov	x0, x8
    21f0:	927df028 	and	x8, x1, #0xfffffffffffffff8
    21f4:	f9400014 	ldr	x20, [x0]
/home/atmark/optee-build/imx-boot/imx-optee-os/lib/libutils/ext/snprintk.c:450
    21f8:	b0000080 	adrp	x0, 13000 <__text_end+0x3174>
    21fc:	91318000 	add	x0, x0, #0xc60
    2200:	a90a23ea 	stp	x10, x8, [sp, #160]
    2204:	f100029f 	cmp	x20, #0x0
    2208:	29163be9 	stp	w9, w14, [sp, #176]
    220c:	9a940014 	csel	x20, x0, x20, eq  // eq = none
/home/atmark/optee-build/imx-boot/imx-optee-os/lib/libutils/ext/snprintk.c:451
    2210:	f9005fed 	str	x13, [sp, #184]
    2214:	3100071f 	cmn	w24, #0x1
    2218:	54002000 	b.eq	2618 <kprintf.constprop.0+0x928>  // b.none
/home/atmark/optee-build/imx-boot/imx-optee-os/lib/libutils/ext/snprintk.c:457
    221c:	52800001 	mov	w1, #0x0                   	// #0
    2220:	93407f02 	sxtw	x2, w24
    2224:	aa1403e0 	mov	x0, x20
    2228:	9400027a 	bl	2c10 <memchr>
/home/atmark/optee-build/imx-boot/imx-optee-os/lib/libutils/ext/snprintk.c:459
    222c:	b0000081 	adrp	x1, 13000 <__text_end+0x3174>
    2230:	9132802b 	add	x11, x1, #0xca0
    2234:	29563be9 	ldp	w9, w14, [sp, #176]
    2238:	a94a23ea 	ldp	x10, x8, [sp, #160]
    223c:	f9405fed 	ldr	x13, [sp, #184]
    2240:	b4003360 	cbz	x0, 28ac <kprintf.constprop.0+0xbbc>
/home/atmark/optee-build/imx-boot/imx-optee-os/lib/libutils/ext/snprintk.c:460
    2244:	cb140000 	sub	x0, x0, x20
    2248:	6b00031f 	cmp	w24, w0
    224c:	1a80b306 	csel	w6, w24, w0, lt  // lt = tstop
/home/atmark/optee-build/imx-boot/imx-optee-os/lib/libutils/ext/snprintk.c:571
    2250:	710000df 	cmp	w6, #0x0
    2254:	4b0603ef 	neg	w15, w6
    2258:	1a9fa0d8 	csel	w24, w6, wzr, ge  // ge = tcont
    225c:	2a2603e0 	mvn	w0, w6
/home/atmark/optee-build/imx-boot/imx-optee-os/lib/libutils/ext/snprintk.c:608
    2260:	510004c3 	sub	w3, w6, #0x1
    2264:	17fffed5 	b	1db8 <kprintf.constprop.0+0xc8>
/home/atmark/optee-build/imx-boot/imx-optee-os/lib/libutils/ext/snprintk.c:296
    2268:	394002ae 	ldrb	w14, [x21]
/home/atmark/optee-build/imx-boot/imx-optee-os/lib/libutils/ext/snprintk.c:372
    226c:	321b035a 	orr	w26, w26, #0x20
/home/atmark/optee-build/imx-boot/imx-optee-os/lib/libutils/ext/snprintk.c:373
    2270:	17fffec5 	b	1d84 <kprintf.constprop.0+0x94>
/home/atmark/optee-build/imx-boot/imx-optee-os/lib/libutils/ext/snprintk.c:421
    2274:	b9409fe0 	ldr	w0, [sp, #156]
    2278:	34000080 	cbz	w0, 2288 <kprintf.constprop.0+0x598>
    227c:	394002a0 	ldrb	w0, [x21]
    2280:	7101541f 	cmp	w0, #0x55
    2284:	54001fe0 	b.eq	2680 <kprintf.constprop.0+0x990>  // b.none
/home/atmark/optee-build/imx-boot/imx-optee-os/lib/libutils/ext/snprintk.c:441
    2288:	37f82e09 	tbnz	w9, #31, 2848 <kprintf.constprop.0+0xb58>
    228c:	91003d01 	add	x1, x8, #0xf
    2290:	aa0803e0 	mov	x0, x8
    2294:	927df028 	and	x8, x1, #0xfffffffffffffff8
    2298:	f9400000 	ldr	x0, [x0]
/home/atmark/optee-build/imx-boot/imx-optee-os/lib/libutils/ext/snprintk.c:443
    229c:	b000008a 	adrp	x10, 13000 <__text_end+0x3174>
/home/atmark/optee-build/imx-boot/imx-optee-os/lib/libutils/ext/snprintk.c:444
    22a0:	321f035a 	orr	w26, w26, #0x2
/home/atmark/optee-build/imx-boot/imx-optee-os/lib/libutils/ext/snprintk.c:443
    22a4:	9135614a 	add	x10, x10, #0xd58
/home/atmark/optee-build/imx-boot/imx-optee-os/lib/libutils/ext/snprintk.c:445
    22a8:	52800f0e 	mov	w14, #0x78                  	// #120
/home/atmark/optee-build/imx-boot/imx-optee-os/lib/libutils/ext/snprintk.c:494
    22ac:	3100071f 	cmn	w24, #0x1
    22b0:	540000a0 	b.eq	22c4 <kprintf.constprop.0+0x5d4>  // b.none
/home/atmark/optee-build/imx-boot/imx-optee-os/lib/libutils/ext/snprintk.c:503
    22b4:	f100001f 	cmp	x0, #0x0
/home/atmark/optee-build/imx-boot/imx-optee-os/lib/libutils/ext/snprintk.c:495
    22b8:	12157b5a 	and	w26, w26, #0xfffffbff
/home/atmark/optee-build/imx-boot/imx-optee-os/lib/libutils/ext/snprintk.c:503
    22bc:	7a400b00 	ccmp	w24, #0x0, #0x0, eq  // eq = none
    22c0:	54fff6e0 	b.eq	219c <kprintf.constprop.0+0x4ac>  // b.none
    22c4:	52800004 	mov	w4, #0x0                   	// #0
/home/atmark/optee-build/imx-boot/imx-optee-os/lib/libutils/ext/snprintk.c:502
    22c8:	9103b7e3 	add	x3, sp, #0xed
    22cc:	aa0303f4 	mov	x20, x3
/home/atmark/optee-build/imx-boot/imx-optee-os/lib/libutils/ext/snprintk.c:531
    22d0:	92400c01 	and	x1, x0, #0xf
/home/atmark/optee-build/imx-boot/imx-optee-os/lib/libutils/ext/snprintk.c:532
    22d4:	d344fc00 	lsr	x0, x0, #4
/home/atmark/optee-build/imx-boot/imx-optee-os/lib/libutils/ext/snprintk.c:531
    22d8:	38616941 	ldrb	w1, [x10, x1]
    22dc:	381ffe81 	strb	w1, [x20, #-1]!
/home/atmark/optee-build/imx-boot/imx-optee-os/lib/libutils/ext/snprintk.c:533
    22e0:	b5ffff80 	cbnz	x0, 22d0 <kprintf.constprop.0+0x5e0>
/home/atmark/optee-build/imx-boot/imx-optee-os/lib/libutils/ext/snprintk.c:543
    22e4:	cb140063 	sub	x3, x3, x20
    22e8:	2a0303e6 	mov	w6, w3
/home/atmark/optee-build/imx-boot/imx-optee-os/lib/libutils/ext/snprintk.c:603
    22ec:	4b03030f 	sub	w15, w24, w3
/home/atmark/optee-build/imx-boot/imx-optee-os/lib/libutils/ext/snprintk.c:608
    22f0:	51000463 	sub	w3, w3, #0x1
    22f4:	17ffff73 	b	20c0 <kprintf.constprop.0+0x3d0>
/home/atmark/optee-build/imx-boot/imx-optee-os/lib/libutils/ext/snprintk.c:364
    22f8:	394002ae 	ldrb	w14, [x21]
    22fc:	7101b1df 	cmp	w14, #0x6c
    2300:	54002b40 	b.eq	2868 <kprintf.constprop.0+0xb78>  // b.none
/home/atmark/optee-build/imx-boot/imx-optee-os/lib/libutils/ext/snprintk.c:368
    2304:	321c035a 	orr	w26, w26, #0x10
    2308:	17fffe9f 	b	1d84 <kprintf.constprop.0+0x94>
/home/atmark/optee-build/imx-boot/imx-optee-os/lib/libutils/ext/snprintk.c:296
    230c:	394002ae 	ldrb	w14, [x21]
/home/atmark/optee-build/imx-boot/imx-optee-os/lib/libutils/ext/snprintk.c:361
    2310:	3219035a 	orr	w26, w26, #0x80
/home/atmark/optee-build/imx-boot/imx-optee-os/lib/libutils/ext/snprintk.c:362
    2314:	17fffe9c 	b	1d84 <kprintf.constprop.0+0x94>
/home/atmark/optee-build/imx-boot/imx-optee-os/lib/libutils/ext/snprintk.c:398
    2318:	3738005a 	tbnz	w26, #7, 2320 <kprintf.constprop.0+0x630>
/home/atmark/optee-build/imx-boot/imx-optee-os/lib/libutils/ext/snprintk.c:400
    231c:	3640253a 	tbz	w26, #8, 27c0 <kprintf.constprop.0+0xad0>
/home/atmark/optee-build/imx-boot/imx-optee-os/lib/libutils/ext/snprintk.c:407
    2320:	37f82849 	tbnz	w9, #31, 2828 <kprintf.constprop.0+0xb38>
    2324:	91003d01 	add	x1, x8, #0xf
    2328:	aa0803e0 	mov	x0, x8
    232c:	927df028 	and	x8, x1, #0xfffffffffffffff8
    2330:	f9400000 	ldr	x0, [x0]
    2334:	93407f81 	sxtw	x1, w28
    2338:	f9000001 	str	x1, [x0]
    233c:	17fffe85 	b	1d50 <kprintf.constprop.0+0x60>
/home/atmark/optee-build/imx-boot/imx-optee-os/lib/libutils/ext/snprintk.c:328
    2340:	aa1503e3 	mov	x3, x21
    2344:	3840146e 	ldrb	w14, [x3], #1
    2348:	7100a9df 	cmp	w14, #0x2a
    234c:	54003100 	b.eq	296c <kprintf.constprop.0+0xc7c>  // b.none
/home/atmark/optee-build/imx-boot/imx-optee-os/lib/libutils/ext/snprintk.c:334
    2350:	5100c1c0 	sub	w0, w14, #0x30
/home/atmark/optee-build/imx-boot/imx-optee-os/lib/libutils/ext/snprintk.c:328
    2354:	aa0303f5 	mov	x21, x3
/home/atmark/optee-build/imx-boot/imx-optee-os/lib/libutils/ext/snprintk.c:333
    2358:	52800018 	mov	w24, #0x0                   	// #0
/home/atmark/optee-build/imx-boot/imx-optee-os/lib/libutils/ext/snprintk.c:334
    235c:	7100241f 	cmp	w0, #0x9
    2360:	54ffd148 	b.hi	1d88 <kprintf.constprop.0+0x98>  // b.pmore
    2364:	d503201f 	nop
/home/atmark/optee-build/imx-boot/imx-optee-os/lib/libutils/ext/snprintk.c:336
    2368:	384016ae 	ldrb	w14, [x21], #1
/home/atmark/optee-build/imx-boot/imx-optee-os/lib/libutils/ext/snprintk.c:335
    236c:	0b180b18 	add	w24, w24, w24, lsl #2
    2370:	0b180418 	add	w24, w0, w24, lsl #1
/home/atmark/optee-build/imx-boot/imx-optee-os/lib/libutils/ext/snprintk.c:334
    2374:	5100c1c0 	sub	w0, w14, #0x30
    2378:	7100241f 	cmp	w0, #0x9
    237c:	54ffff69 	b.ls	2368 <kprintf.constprop.0+0x678>  // b.plast
    2380:	17fffe82 	b	1d88 <kprintf.constprop.0+0x98>
/home/atmark/optee-build/imx-boot/imx-optee-os/lib/libutils/ext/snprintk.c:328
    2384:	394002ae 	ldrb	w14, [x21]
/home/atmark/optee-build/imx-boot/imx-optee-os/lib/libutils/ext/snprintk.c:322
    2388:	321e035a 	orr	w26, w26, #0x4
/home/atmark/optee-build/imx-boot/imx-optee-os/lib/libutils/ext/snprintk.c:323
    238c:	17fffe7e 	b	1d84 <kprintf.constprop.0+0x94>
/home/atmark/optee-build/imx-boot/imx-optee-os/lib/libutils/ext/snprintk.c:296
    2390:	394002ae 	ldrb	w14, [x21]
/home/atmark/optee-build/imx-boot/imx-optee-os/lib/libutils/ext/snprintk.c:325
    2394:	52800564 	mov	w4, #0x2b                  	// #43
    2398:	17fffe7b 	b	1d84 <kprintf.constprop.0+0x94>
/home/atmark/optee-build/imx-boot/imx-optee-os/lib/libutils/ext/snprintk.c:317
    239c:	37f812e9 	tbnz	w9, #31, 25f8 <kprintf.constprop.0+0x908>
    23a0:	91002d03 	add	x3, x8, #0xb
    23a4:	aa0803e0 	mov	x0, x8
    23a8:	927df068 	and	x8, x3, #0xfffffffffffffff8
    23ac:	b940001b 	ldr	w27, [x0]
/home/atmark/optee-build/imx-boot/imx-optee-os/lib/libutils/ext/snprintk.c:328
    23b0:	394002ae 	ldrb	w14, [x21]
/home/atmark/optee-build/imx-boot/imx-optee-os/lib/libutils/ext/snprintk.c:317
    23b4:	36ffce9b 	tbz	w27, #31, 1d84 <kprintf.constprop.0+0x94>
/home/atmark/optee-build/imx-boot/imx-optee-os/lib/libutils/ext/snprintk.c:319
    23b8:	4b1b03fb 	neg	w27, w27
/home/atmark/optee-build/imx-boot/imx-optee-os/lib/libutils/ext/snprintk.c:322
    23bc:	321e035a 	orr	w26, w26, #0x4
/home/atmark/optee-build/imx-boot/imx-optee-os/lib/libutils/ext/snprintk.c:323
    23c0:	17fffe71 	b	1d84 <kprintf.constprop.0+0x94>
/home/atmark/optee-build/imx-boot/imx-optee-os/lib/libutils/ext/snprintk.c:296
    23c4:	394002ae 	ldrb	w14, [x21]
/home/atmark/optee-build/imx-boot/imx-optee-os/lib/libutils/ext/snprintk.c:308
    23c8:	3200035a 	orr	w26, w26, #0x1
/home/atmark/optee-build/imx-boot/imx-optee-os/lib/libutils/ext/snprintk.c:309
    23cc:	17fffe6e 	b	1d84 <kprintf.constprop.0+0x94>
/home/atmark/optee-build/imx-boot/imx-optee-os/lib/libutils/ext/snprintk.c:305
    23d0:	7100009f 	cmp	w4, #0x0
/home/atmark/optee-build/imx-boot/imx-optee-os/lib/libutils/ext/snprintk.c:328
    23d4:	394002ae 	ldrb	w14, [x21]
/home/atmark/optee-build/imx-boot/imx-optee-os/lib/libutils/ext/snprintk.c:305
    23d8:	1a811084 	csel	w4, w4, w1, ne  // ne = any
    23dc:	17fffe6a 	b	1d84 <kprintf.constprop.0+0x94>
/home/atmark/optee-build/imx-boot/imx-optee-os/lib/libutils/ext/snprintk.c:296
    23e0:	394002ae 	ldrb	w14, [x21]
/home/atmark/optee-build/imx-boot/imx-optee-os/lib/libutils/ext/snprintk.c:346
    23e4:	3216035a 	orr	w26, w26, #0x400
/home/atmark/optee-build/imx-boot/imx-optee-os/lib/libutils/ext/snprintk.c:347
    23e8:	17fffe67 	b	1d84 <kprintf.constprop.0+0x94>
/home/atmark/optee-build/imx-boot/imx-optee-os/lib/libutils/ext/snprintk.c:381
    23ec:	37f80f69 	tbnz	w9, #31, 25d8 <kprintf.constprop.0+0x8e8>
    23f0:	91002d01 	add	x1, x8, #0xb
    23f4:	aa0803e0 	mov	x0, x8
    23f8:	927df028 	and	x8, x1, #0xfffffffffffffff8
    23fc:	b9400001 	ldr	w1, [x0]
/home/atmark/optee-build/imx-boot/imx-optee-os/lib/libutils/ext/snprintk.c:384
    2400:	52800038 	mov	w24, #0x1                   	// #1
/home/atmark/optee-build/imx-boot/imx-optee-os/lib/libutils/ext/snprintk.c:381
    2404:	910323f4 	add	x20, sp, #0xc8
/home/atmark/optee-build/imx-boot/imx-optee-os/lib/libutils/ext/snprintk.c:382
    2408:	2a1803e6 	mov	w6, w24
/home/atmark/optee-build/imx-boot/imx-optee-os/lib/libutils/ext/snprintk.c:384
    240c:	52800003 	mov	w3, #0x0                   	// #0
    2410:	1280000f 	mov	w15, #0xffffffff            	// #-1
    2414:	12800020 	mov	w0, #0xfffffffe            	// #-2
/home/atmark/optee-build/imx-boot/imx-optee-os/lib/libutils/ext/snprintk.c:381
    2418:	390323e1 	strb	w1, [sp, #200]
/home/atmark/optee-build/imx-boot/imx-optee-os/lib/libutils/ext/snprintk.c:384
    241c:	17fffe67 	b	1db8 <kprintf.constprop.0+0xc8>
/home/atmark/optee-build/imx-boot/imx-optee-os/lib/libutils/ext/snprintk.c:480
    2420:	b000008a 	adrp	x10, 13000 <__text_end+0x3174>
    2424:	9135614a 	add	x10, x10, #0xd58
/home/atmark/optee-build/imx-boot/imx-optee-os/lib/libutils/ext/snprintk.c:481
    2428:	3738009a 	tbnz	w26, #7, 2438 <kprintf.constprop.0+0x748>
    242c:	3740007a 	tbnz	w26, #8, 2438 <kprintf.constprop.0+0x748>
    2430:	36481b7a 	tbz	w26, #9, 279c <kprintf.constprop.0+0xaac>
    2434:	d503201f 	nop
    2438:	37f809c9 	tbnz	w9, #31, 2570 <kprintf.constprop.0+0x880>
    243c:	aa0803e0 	mov	x0, x8
    2440:	91003d01 	add	x1, x8, #0xf
    2444:	927df028 	and	x8, x1, #0xfffffffffffffff8
    2448:	f9400000 	ldr	x0, [x0]
/home/atmark/optee-build/imx-boot/imx-optee-os/lib/libutils/ext/snprintk.c:484
    244c:	3607f31a 	tbz	w26, #0, 22ac <kprintf.constprop.0+0x5bc>
    2450:	b4fff2e0 	cbz	x0, 22ac <kprintf.constprop.0+0x5bc>
/home/atmark/optee-build/imx-boot/imx-optee-os/lib/libutils/ext/snprintk.c:485
    2454:	321f035a 	orr	w26, w26, #0x2
/home/atmark/optee-build/imx-boot/imx-optee-os/lib/libutils/ext/snprintk.c:482
    2458:	52800042 	mov	w2, #0x2                   	// #2
/home/atmark/optee-build/imx-boot/imx-optee-os/lib/libutils/ext/snprintk.c:488
    245c:	52800004 	mov	w4, #0x0                   	// #0
/home/atmark/optee-build/imx-boot/imx-optee-os/lib/libutils/ext/snprintk.c:495
    2460:	3100071f 	cmn	w24, #0x1
    2464:	12157b41 	and	w1, w26, #0xfffffbff
    2468:	1a9a103a 	csel	w26, w1, w26, ne  // ne = any
/home/atmark/optee-build/imx-boot/imx-optee-os/lib/libutils/ext/snprintk.c:509
    246c:	7100045f 	cmp	w2, #0x1
    2470:	54ffe4c0 	b.eq	2108 <kprintf.constprop.0+0x418>  // b.none
    2474:	17ffff95 	b	22c8 <kprintf.constprop.0+0x5d8>
    2478:	2a0403e1 	mov	w1, w4
    247c:	aa0003f4 	mov	x20, x0
    2480:	2a0303e4 	mov	w4, w3
/home/atmark/optee-build/imx-boot/imx-optee-os/lib/libutils/ext/snprintk.c:608
    2484:	2a0103e3 	mov	w3, w1
    2488:	35ffcd44 	cbnz	w4, 1e30 <kprintf.constprop.0+0x140>
    248c:	17fffe76 	b	1e64 <kprintf.constprop.0+0x174>
    2490:	34ffcea3 	cbz	w3, 1e64 <kprintf.constprop.0+0x174>
    2494:	91000a94 	add	x20, x20, #0x2
    2498:	51000863 	sub	w3, w3, #0x2
    249c:	35ffcca4 	cbnz	w4, 1e30 <kprintf.constprop.0+0x140>
    24a0:	17fffe71 	b	1e64 <kprintf.constprop.0+0x174>
/home/atmark/optee-build/imx-boot/imx-optee-os/lib/libutils/ext/snprintk.c:588
    24a4:	34000e84 	cbz	w4, 2674 <kprintf.constprop.0+0x984>
/home/atmark/optee-build/imx-boot/imx-optee-os/lib/libutils/ext/snprintk.c:592
    24a8:	d2800013 	mov	x19, #0x0                   	// #0
    24ac:	17fffe52 	b	1df4 <kprintf.constprop.0+0x104>
/home/atmark/optee-build/imx-boot/imx-optee-os/lib/libutils/ext/snprintk.c:502
    24b0:	9103b7e3 	add	x3, sp, #0xed
    24b4:	aa0303f4 	mov	x20, x3
/home/atmark/optee-build/imx-boot/imx-optee-os/lib/libutils/ext/snprintk.c:512
    24b8:	12000801 	and	w1, w0, #0x7
    24bc:	aa1403e2 	mov	x2, x20
    24c0:	1100c021 	add	w1, w1, #0x30
    24c4:	381ffe81 	strb	w1, [x20, #-1]!
/home/atmark/optee-build/imx-boot/imx-optee-os/lib/libutils/ext/snprintk.c:513
    24c8:	d343fc00 	lsr	x0, x0, #3
/home/atmark/optee-build/imx-boot/imx-optee-os/lib/libutils/ext/snprintk.c:514
    24cc:	b5ffff60 	cbnz	x0, 24b8 <kprintf.constprop.0+0x7c8>
/home/atmark/optee-build/imx-boot/imx-optee-os/lib/libutils/ext/snprintk.c:516
    24d0:	7100c03f 	cmp	w1, #0x30
    24d4:	1a9f07e0 	cset	w0, ne  // ne = any
    24d8:	6a00035f 	tst	w26, w0
    24dc:	540006c1 	b.ne	25b4 <kprintf.constprop.0+0x8c4>  // b.any
/home/atmark/optee-build/imx-boot/imx-optee-os/lib/libutils/ext/snprintk.c:543
    24e0:	cb140063 	sub	x3, x3, x20
    24e4:	2a0303e6 	mov	w6, w3
/home/atmark/optee-build/imx-boot/imx-optee-os/lib/libutils/ext/snprintk.c:603
    24e8:	4b03030f 	sub	w15, w24, w3
/home/atmark/optee-build/imx-boot/imx-optee-os/lib/libutils/ext/snprintk.c:608
    24ec:	51000463 	sub	w3, w3, #0x1
    24f0:	17ffff30 	b	21b0 <kprintf.constprop.0+0x4c0>
/home/atmark/optee-build/imx-boot/imx-optee-os/lib/libutils/ext/snprintk.c:392
    24f4:	cb0003e0 	neg	x0, x0
/home/atmark/optee-build/imx-boot/imx-optee-os/lib/libutils/ext/snprintk.c:395
    24f8:	52800022 	mov	w2, #0x1                   	// #1
/home/atmark/optee-build/imx-boot/imx-optee-os/lib/libutils/ext/snprintk.c:393
    24fc:	528005a4 	mov	w4, #0x2d                  	// #45
    2500:	17ffffd8 	b	2460 <kprintf.constprop.0+0x770>
/home/atmark/optee-build/imx-boot/imx-optee-os/lib/libutils/ext/snprintk.c:619
    2504:	b4000056 	cbz	x22, 250c <kprintf.constprop.0+0x81c>
/home/atmark/optee-build/imx-boot/imx-optee-os/lib/libutils/ext/snprintk.c:620
    2508:	f90002d3 	str	x19, [x22]
/home/atmark/optee-build/imx-boot/imx-optee-os/lib/libutils/ext/snprintk.c:622
    250c:	2a1c03e0 	mov	w0, w28
    2510:	a9437bfd 	ldp	x29, x30, [sp, #48]
    2514:	a94453f3 	ldp	x19, x20, [sp, #64]
    2518:	a9455bf5 	ldp	x21, x22, [sp, #80]
    251c:	a94663f7 	ldp	x23, x24, [sp, #96]
    2520:	a9476bf9 	ldp	x25, x26, [sp, #112]
    2524:	a94873fb 	ldp	x27, x28, [sp, #128]
    2528:	9103c3ff 	add	sp, sp, #0xf0
    252c:	d65f03c0 	ret
/home/atmark/optee-build/imx-boot/imx-optee-os/lib/libutils/ext/snprintk.c:473
    2530:	11002121 	add	w1, w9, #0x8
    2534:	7100003f 	cmp	w1, #0x0
    2538:	54001b4d 	b.le	28a0 <kprintf.constprop.0+0xbb0>
    253c:	91003d02 	add	x2, x8, #0xf
    2540:	aa0803e0 	mov	x0, x8
    2544:	2a0103e9 	mov	w9, w1
    2548:	927df048 	and	x8, x2, #0xfffffffffffffff8
    254c:	17fffeeb 	b	20f8 <kprintf.constprop.0+0x408>
/home/atmark/optee-build/imx-boot/imx-optee-os/lib/libutils/ext/snprintk.c:417
    2550:	11002121 	add	w1, w9, #0x8
    2554:	7100003f 	cmp	w1, #0x0
    2558:	540019ed 	b.le	2894 <kprintf.constprop.0+0xba4>
    255c:	91003d02 	add	x2, x8, #0xf
    2560:	aa0803e0 	mov	x0, x8
    2564:	2a0103e9 	mov	w9, w1
    2568:	927df048 	and	x8, x2, #0xfffffffffffffff8
    256c:	17ffff05 	b	2180 <kprintf.constprop.0+0x490>
/home/atmark/optee-build/imx-boot/imx-optee-os/lib/libutils/ext/snprintk.c:481
    2570:	11002121 	add	w1, w9, #0x8
    2574:	7100003f 	cmp	w1, #0x0
    2578:	5400186d 	b.le	2884 <kprintf.constprop.0+0xb94>
    257c:	aa0803e0 	mov	x0, x8
    2580:	91003d02 	add	x2, x8, #0xf
    2584:	2a0103e9 	mov	w9, w1
    2588:	927df048 	and	x8, x2, #0xfffffffffffffff8
    258c:	f9400000 	ldr	x0, [x0]
    2590:	17ffffaf 	b	244c <kprintf.constprop.0+0x75c>
/home/atmark/optee-build/imx-boot/imx-optee-os/lib/libutils/ext/snprintk.c:390
    2594:	11002121 	add	w1, w9, #0x8
    2598:	7100003f 	cmp	w1, #0x0
    259c:	540016ed 	b.le	2878 <kprintf.constprop.0+0xb88>
    25a0:	91003d02 	add	x2, x8, #0xf
    25a4:	aa0803e0 	mov	x0, x8
    25a8:	2a0103e9 	mov	w9, w1
    25ac:	927df048 	and	x8, x2, #0xfffffffffffffff8
    25b0:	17fffeb6 	b	2088 <kprintf.constprop.0+0x398>
/home/atmark/optee-build/imx-boot/imx-optee-os/lib/libutils/ext/snprintk.c:517
    25b4:	d1000842 	sub	x2, x2, #0x2
    25b8:	52800600 	mov	w0, #0x30                  	// #48
/home/atmark/optee-build/imx-boot/imx-optee-os/lib/libutils/ext/snprintk.c:543
    25bc:	cb020063 	sub	x3, x3, x2
/home/atmark/optee-build/imx-boot/imx-optee-os/lib/libutils/ext/snprintk.c:517
    25c0:	381ff280 	sturb	w0, [x20, #-1]
/home/atmark/optee-build/imx-boot/imx-optee-os/lib/libutils/ext/snprintk.c:543
    25c4:	2a0303e6 	mov	w6, w3
/home/atmark/optee-build/imx-boot/imx-optee-os/lib/libutils/ext/snprintk.c:603
    25c8:	4b03030f 	sub	w15, w24, w3
/home/atmark/optee-build/imx-boot/imx-optee-os/lib/libutils/ext/snprintk.c:517
    25cc:	aa0203f4 	mov	x20, x2
/home/atmark/optee-build/imx-boot/imx-optee-os/lib/libutils/ext/snprintk.c:608
    25d0:	51000463 	sub	w3, w3, #0x1
    25d4:	17fffef7 	b	21b0 <kprintf.constprop.0+0x4c0>
/home/atmark/optee-build/imx-boot/imx-optee-os/lib/libutils/ext/snprintk.c:381
    25d8:	11002121 	add	w1, w9, #0x8
    25dc:	7100003f 	cmp	w1, #0x0
    25e0:	540011ed 	b.le	281c <kprintf.constprop.0+0xb2c>
    25e4:	91002d02 	add	x2, x8, #0xb
    25e8:	aa0803e0 	mov	x0, x8
    25ec:	2a0103e9 	mov	w9, w1
    25f0:	927df048 	and	x8, x2, #0xfffffffffffffff8
    25f4:	17ffff82 	b	23fc <kprintf.constprop.0+0x70c>
/home/atmark/optee-build/imx-boot/imx-optee-os/lib/libutils/ext/snprintk.c:317
    25f8:	11002123 	add	w3, w9, #0x8
    25fc:	7100007f 	cmp	w3, #0x0
    2600:	5400102d 	b.le	2804 <kprintf.constprop.0+0xb14>
    2604:	91002d05 	add	x5, x8, #0xb
    2608:	aa0803e0 	mov	x0, x8
    260c:	2a0303e9 	mov	w9, w3
    2610:	927df0a8 	and	x8, x5, #0xfffffffffffffff8
    2614:	17ffff66 	b	23ac <kprintf.constprop.0+0x6bc>
/home/atmark/optee-build/imx-boot/imx-optee-os/lib/libutils/ext/snprintk.c:466
    2618:	aa1403e0 	mov	x0, x20
    261c:	940001b5 	bl	2cf0 <strlen>
    2620:	aa0003e3 	mov	x3, x0
/home/atmark/optee-build/imx-boot/imx-optee-os/lib/libutils/ext/snprintk.c:571
    2624:	7100001f 	cmp	w0, #0x0
/home/atmark/optee-build/imx-boot/imx-optee-os/lib/libutils/ext/snprintk.c:466
    2628:	2a0003e6 	mov	w6, w0
/home/atmark/optee-build/imx-boot/imx-optee-os/lib/libutils/ext/snprintk.c:571
    262c:	1a9fa018 	csel	w24, w0, wzr, ge  // ge = tcont
    2630:	4b0003ef 	neg	w15, w0
/home/atmark/optee-build/imx-boot/imx-optee-os/lib/libutils/ext/snprintk.c:608
    2634:	51000463 	sub	w3, w3, #0x1
    2638:	2a2003e0 	mvn	w0, w0
    263c:	b0000081 	adrp	x1, 13000 <__text_end+0x3174>
    2640:	9132802b 	add	x11, x1, #0xca0
    2644:	29563be9 	ldp	w9, w14, [sp, #176]
    2648:	a94a23ea 	ldp	x10, x8, [sp, #160]
    264c:	f9405fed 	ldr	x13, [sp, #184]
    2650:	17fffdda 	b	1db8 <kprintf.constprop.0+0xc8>
/home/atmark/optee-build/imx-boot/imx-optee-os/lib/libutils/ext/snprintk.c:448
    2654:	11002121 	add	w1, w9, #0x8
    2658:	7100003f 	cmp	w1, #0x0
    265c:	54000dad 	b.le	2810 <kprintf.constprop.0+0xb20>
    2660:	91003d02 	add	x2, x8, #0xf
    2664:	aa0803e0 	mov	x0, x8
    2668:	2a0103e9 	mov	w9, w1
    266c:	927df048 	and	x8, x2, #0xfffffffffffffff8
    2670:	17fffee1 	b	21f4 <kprintf.constprop.0+0x504>
/home/atmark/optee-build/imx-boot/imx-optee-os/lib/libutils/ext/snprintk.c:590
    2674:	360fbc5a 	tbz	w26, #1, 1dfc <kprintf.constprop.0+0x10c>
/home/atmark/optee-build/imx-boot/imx-optee-os/lib/libutils/ext/snprintk.c:592
    2678:	d2800013 	mov	x19, #0x0                   	// #0
    267c:	17fffdde 	b	1df4 <kprintf.constprop.0+0x104>
/home/atmark/optee-build/imx-boot/imx-optee-os/lib/libutils/ext/snprintk.c:421
    2680:	394006a0 	ldrb	w0, [x21, #1]
    2684:	7101b01f 	cmp	w0, #0x6c
    2688:	54ffe001 	b.ne	2288 <kprintf.constprop.0+0x598>  // b.any
/home/atmark/optee-build/imx-boot/imx-optee-os/lib/libutils/ext/snprintk.c:426
    268c:	91000ab5 	add	x21, x21, #0x2
/home/atmark/optee-build/imx-boot/imx-optee-os/lib/libutils/ext/snprintk.c:427
    2690:	37f81249 	tbnz	w9, #31, 28d8 <kprintf.constprop.0+0xbe8>
    2694:	91003d01 	add	x1, x8, #0xf
    2698:	aa0803e0 	mov	x0, x8
    269c:	927df028 	and	x8, x1, #0xfffffffffffffff8
    26a0:	f940000f 	ldr	x15, [x0]
uuid2str():
/home/atmark/optee-build/imx-boot/imx-optee-os/lib/libutils/ext/snprintk.c:229
    26a4:	910323e0 	add	x0, sp, #0xc8
kprintf():
/home/atmark/optee-build/imx-boot/imx-optee-os/lib/libutils/ext/snprintk.c:429
    26a8:	aa0003f4 	mov	x20, x0
uuid2str():
/home/atmark/optee-build/imx-boot/imx-optee-os/lib/libutils/ext/snprintk.c:229
    26ac:	b0000082 	adrp	x2, 13000 <__text_end+0x3174>
    26b0:	9131a042 	add	x2, x2, #0xc68
    26b4:	a90a23ea 	stp	x10, x8, [sp, #160]
    26b8:	39403de1 	ldrb	w1, [x15, #15]
    26bc:	394021e6 	ldrb	w6, [x15, #8]
    26c0:	b94001e3 	ldr	w3, [x15]
    26c4:	394025e7 	ldrb	w7, [x15, #9]
    26c8:	79400de5 	ldrh	w5, [x15, #6]
    26cc:	794009e4 	ldrh	w4, [x15, #4]
    26d0:	b9002be1 	str	w1, [sp, #40]
    26d4:	29163be9 	stp	w9, w14, [sp, #176]
    26d8:	394039e1 	ldrb	w1, [x15, #14]
    26dc:	b90023e1 	str	w1, [sp, #32]
    26e0:	d28004a1 	mov	x1, #0x25                  	// #37
    26e4:	f9005fed 	str	x13, [sp, #184]
    26e8:	394035f0 	ldrb	w16, [x15, #13]
    26ec:	b9001bf0 	str	w16, [sp, #24]
    26f0:	394031f0 	ldrb	w16, [x15, #12]
    26f4:	b90013f0 	str	w16, [sp, #16]
    26f8:	39402df0 	ldrb	w16, [x15, #11]
    26fc:	b9000bf0 	str	w16, [sp, #8]
    2700:	394029ef 	ldrb	w15, [x15, #10]
    2704:	b90003ef 	str	w15, [sp]
    2708:	97fffd5e 	bl	1c80 <snprintk>
    270c:	2a0003e6 	mov	w6, w0
kprintf():
/home/atmark/optee-build/imx-boot/imx-optee-os/lib/libutils/ext/snprintk.c:571
    2710:	7100001f 	cmp	w0, #0x0
    2714:	4b0003ef 	neg	w15, w0
    2718:	1a9fa018 	csel	w24, w0, wzr, ge  // ge = tcont
/home/atmark/optee-build/imx-boot/imx-optee-os/lib/libutils/ext/snprintk.c:608
    271c:	510004c3 	sub	w3, w6, #0x1
    2720:	2a2003e0 	mvn	w0, w0
    2724:	17ffffc6 	b	263c <kprintf.constprop.0+0x94c>
/home/atmark/optee-build/imx-boot/imx-optee-os/lib/libutils/ext/snprintk.c:417
    2728:	372fd25a 	tbnz	w26, #5, 2170 <kprintf.constprop.0+0x480>
    272c:	3727d23a 	tbnz	w26, #4, 2170 <kprintf.constprop.0+0x480>
    2730:	36300e5a 	tbz	w26, #6, 28f8 <kprintf.constprop.0+0xc08>
    2734:	37f81709 	tbnz	w9, #31, 2a14 <kprintf.constprop.0+0xd24>
    2738:	aa0803e0 	mov	x0, x8
    273c:	91002d01 	add	x1, x8, #0xb
    2740:	927df028 	and	x8, x1, #0xfffffffffffffff8
    2744:	79400000 	ldrh	w0, [x0]
    2748:	17fffe8f 	b	2184 <kprintf.constprop.0+0x494>
/home/atmark/optee-build/imx-boot/imx-optee-os/lib/libutils/ext/snprintk.c:473
    274c:	372fccfa 	tbnz	w26, #5, 20e8 <kprintf.constprop.0+0x3f8>
    2750:	3727ccda 	tbnz	w26, #4, 20e8 <kprintf.constprop.0+0x3f8>
    2754:	36300dfa 	tbz	w26, #6, 2910 <kprintf.constprop.0+0xc20>
    2758:	37f81929 	tbnz	w9, #31, 2a7c <kprintf.constprop.0+0xd8c>
    275c:	91002d01 	add	x1, x8, #0xb
    2760:	aa0803e0 	mov	x0, x8
    2764:	927df028 	and	x8, x1, #0xfffffffffffffff8
    2768:	79400000 	ldrh	w0, [x0]
/home/atmark/optee-build/imx-boot/imx-optee-os/lib/libutils/ext/snprintk.c:488
    276c:	52800004 	mov	w4, #0x0                   	// #0
    2770:	17fffe49 	b	2094 <kprintf.constprop.0+0x3a4>
/home/atmark/optee-build/imx-boot/imx-optee-os/lib/libutils/ext/snprintk.c:390
    2774:	372fc83a 	tbnz	w26, #5, 2078 <kprintf.constprop.0+0x388>
    2778:	3727c81a 	tbnz	w26, #4, 2078 <kprintf.constprop.0+0x388>
    277c:	36300d9a 	tbz	w26, #6, 292c <kprintf.constprop.0+0xc3c>
    2780:	37f81a09 	tbnz	w9, #31, 2ac0 <kprintf.constprop.0+0xdd0>
    2784:	91002d01 	add	x1, x8, #0xb
    2788:	aa0803e0 	mov	x0, x8
    278c:	927df028 	and	x8, x1, #0xfffffffffffffff8
    2790:	79800000 	ldrsh	x0, [x0]
/home/atmark/optee-build/imx-boot/imx-optee-os/lib/libutils/ext/snprintk.c:391
    2794:	aa0003e1 	mov	x1, x0
    2798:	17fffe3e 	b	2090 <kprintf.constprop.0+0x3a0>
/home/atmark/optee-build/imx-boot/imx-optee-os/lib/libutils/ext/snprintk.c:481
    279c:	372fe4fa 	tbnz	w26, #5, 2438 <kprintf.constprop.0+0x748>
    27a0:	3727e4da 	tbnz	w26, #4, 2438 <kprintf.constprop.0+0x748>
    27a4:	36300d3a 	tbz	w26, #6, 2948 <kprintf.constprop.0+0xc58>
    27a8:	37f81489 	tbnz	w9, #31, 2a38 <kprintf.constprop.0+0xd48>
    27ac:	aa0803e0 	mov	x0, x8
    27b0:	91002d01 	add	x1, x8, #0xb
    27b4:	927df028 	and	x8, x1, #0xfffffffffffffff8
    27b8:	79400000 	ldrh	w0, [x0]
    27bc:	17ffff24 	b	244c <kprintf.constprop.0+0x75c>
/home/atmark/optee-build/imx-boot/imx-optee-os/lib/libutils/ext/snprintk.c:402
    27c0:	374fdb1a 	tbnz	w26, #9, 2320 <kprintf.constprop.0+0x630>
/home/atmark/optee-build/imx-boot/imx-optee-os/lib/libutils/ext/snprintk.c:404
    27c4:	372fdafa 	tbnz	w26, #5, 2320 <kprintf.constprop.0+0x630>
/home/atmark/optee-build/imx-boot/imx-optee-os/lib/libutils/ext/snprintk.c:406
    27c8:	3727dada 	tbnz	w26, #4, 2320 <kprintf.constprop.0+0x630>
/home/atmark/optee-build/imx-boot/imx-optee-os/lib/libutils/ext/snprintk.c:408
    27cc:	3630113a 	tbz	w26, #6, 29f0 <kprintf.constprop.0+0xd00>
/home/atmark/optee-build/imx-boot/imx-optee-os/lib/libutils/ext/snprintk.c:409
    27d0:	37f80f49 	tbnz	w9, #31, 29b8 <kprintf.constprop.0+0xcc8>
    27d4:	91003d00 	add	x0, x8, #0xf
    27d8:	2a0903e1 	mov	w1, w9
    27dc:	927df000 	and	x0, x0, #0xfffffffffffffff8
    27e0:	f9400102 	ldr	x2, [x8]
    27e4:	2a0103e9 	mov	w9, w1
    27e8:	aa0003e8 	mov	x8, x0
    27ec:	7900005c 	strh	w28, [x2]
    27f0:	17fffd58 	b	1d50 <kprintf.constprop.0+0x60>
/home/atmark/optee-build/imx-boot/imx-optee-os/lib/libutils/ext/snprintk.c:480
    27f4:	b000008a 	adrp	x10, 13000 <__text_end+0x3174>
    27f8:	9135614a 	add	x10, x10, #0xd58
    27fc:	9100614a 	add	x10, x10, #0x18
    2800:	17ffff0a 	b	2428 <kprintf.constprop.0+0x738>
/home/atmark/optee-build/imx-boot/imx-optee-os/lib/libutils/ext/snprintk.c:317
    2804:	8b29c1a0 	add	x0, x13, w9, sxtw
    2808:	2a0303e9 	mov	w9, w3
    280c:	17fffee8 	b	23ac <kprintf.constprop.0+0x6bc>
/home/atmark/optee-build/imx-boot/imx-optee-os/lib/libutils/ext/snprintk.c:448
    2810:	8b29c1a0 	add	x0, x13, w9, sxtw
    2814:	2a0103e9 	mov	w9, w1
    2818:	17fffe77 	b	21f4 <kprintf.constprop.0+0x504>
/home/atmark/optee-build/imx-boot/imx-optee-os/lib/libutils/ext/snprintk.c:381
    281c:	8b29c1a0 	add	x0, x13, w9, sxtw
    2820:	2a0103e9 	mov	w9, w1
    2824:	17fffef6 	b	23fc <kprintf.constprop.0+0x70c>
/home/atmark/optee-build/imx-boot/imx-optee-os/lib/libutils/ext/snprintk.c:407
    2828:	11002121 	add	w1, w9, #0x8
    282c:	7100003f 	cmp	w1, #0x0
    2830:	5400048d 	b.le	28c0 <kprintf.constprop.0+0xbd0>
    2834:	91003d02 	add	x2, x8, #0xf
    2838:	aa0803e0 	mov	x0, x8
    283c:	2a0103e9 	mov	w9, w1
    2840:	927df048 	and	x8, x2, #0xfffffffffffffff8
    2844:	17fffebb 	b	2330 <kprintf.constprop.0+0x640>
/home/atmark/optee-build/imx-boot/imx-optee-os/lib/libutils/ext/snprintk.c:441
    2848:	11002121 	add	w1, w9, #0x8
    284c:	7100003f 	cmp	w1, #0x0
    2850:	540003ed 	b.le	28cc <kprintf.constprop.0+0xbdc>
    2854:	91003d02 	add	x2, x8, #0xf
    2858:	aa0803e0 	mov	x0, x8
    285c:	2a0103e9 	mov	w9, w1
    2860:	927df048 	and	x8, x2, #0xfffffffffffffff8
    2864:	17fffe8d 	b	2298 <kprintf.constprop.0+0x5a8>
/home/atmark/optee-build/imx-boot/imx-optee-os/lib/libutils/ext/snprintk.c:296
    2868:	394006ae 	ldrb	w14, [x21, #1]
/home/atmark/optee-build/imx-boot/imx-optee-os/lib/libutils/ext/snprintk.c:366
    286c:	321b035a 	orr	w26, w26, #0x20
/home/atmark/optee-build/imx-boot/imx-optee-os/lib/libutils/ext/snprintk.c:365
    2870:	910006b5 	add	x21, x21, #0x1
    2874:	17fffd44 	b	1d84 <kprintf.constprop.0+0x94>
/home/atmark/optee-build/imx-boot/imx-optee-os/lib/libutils/ext/snprintk.c:390
    2878:	8b29c1a0 	add	x0, x13, w9, sxtw
    287c:	2a0103e9 	mov	w9, w1
    2880:	17fffe02 	b	2088 <kprintf.constprop.0+0x398>
/home/atmark/optee-build/imx-boot/imx-optee-os/lib/libutils/ext/snprintk.c:481
    2884:	8b29c1a0 	add	x0, x13, w9, sxtw
    2888:	2a0103e9 	mov	w9, w1
    288c:	f9400000 	ldr	x0, [x0]
    2890:	17fffeef 	b	244c <kprintf.constprop.0+0x75c>
/home/atmark/optee-build/imx-boot/imx-optee-os/lib/libutils/ext/snprintk.c:417
    2894:	8b29c1a0 	add	x0, x13, w9, sxtw
    2898:	2a0103e9 	mov	w9, w1
    289c:	17fffe39 	b	2180 <kprintf.constprop.0+0x490>
/home/atmark/optee-build/imx-boot/imx-optee-os/lib/libutils/ext/snprintk.c:473
    28a0:	8b29c1a0 	add	x0, x13, w9, sxtw
    28a4:	2a0103e9 	mov	w9, w1
    28a8:	17fffe14 	b	20f8 <kprintf.constprop.0+0x408>
/home/atmark/optee-build/imx-boot/imx-optee-os/lib/libutils/ext/snprintk.c:572
    28ac:	4b1803ef 	neg	w15, w24
    28b0:	2a3803e0 	mvn	w0, w24
/home/atmark/optee-build/imx-boot/imx-optee-os/lib/libutils/ext/snprintk.c:608
    28b4:	51000703 	sub	w3, w24, #0x1
    28b8:	2a1803e6 	mov	w6, w24
    28bc:	17fffd3f 	b	1db8 <kprintf.constprop.0+0xc8>
/home/atmark/optee-build/imx-boot/imx-optee-os/lib/libutils/ext/snprintk.c:407
    28c0:	8b29c1a0 	add	x0, x13, w9, sxtw
    28c4:	2a0103e9 	mov	w9, w1
    28c8:	17fffe9a 	b	2330 <kprintf.constprop.0+0x640>
/home/atmark/optee-build/imx-boot/imx-optee-os/lib/libutils/ext/snprintk.c:441
    28cc:	8b29c1a0 	add	x0, x13, w9, sxtw
    28d0:	2a0103e9 	mov	w9, w1
    28d4:	17fffe71 	b	2298 <kprintf.constprop.0+0x5a8>
/home/atmark/optee-build/imx-boot/imx-optee-os/lib/libutils/ext/snprintk.c:427
    28d8:	11002121 	add	w1, w9, #0x8
    28dc:	7100003f 	cmp	w1, #0x0
    28e0:	5400040d 	b.le	2960 <kprintf.constprop.0+0xc70>
    28e4:	91003d02 	add	x2, x8, #0xf
    28e8:	aa0803e0 	mov	x0, x8
    28ec:	2a0103e9 	mov	w9, w1
    28f0:	927df048 	and	x8, x2, #0xfffffffffffffff8
    28f4:	17ffff6b 	b	26a0 <kprintf.constprop.0+0x9b0>
/home/atmark/optee-build/imx-boot/imx-optee-os/lib/libutils/ext/snprintk.c:417
    28f8:	37f80d29 	tbnz	w9, #31, 2a9c <kprintf.constprop.0+0xdac>
    28fc:	aa0803e0 	mov	x0, x8
    2900:	91002d01 	add	x1, x8, #0xb
    2904:	927df028 	and	x8, x1, #0xfffffffffffffff8
    2908:	b9400000 	ldr	w0, [x0]
    290c:	17fffe1e 	b	2184 <kprintf.constprop.0+0x494>
/home/atmark/optee-build/imx-boot/imx-optee-os/lib/libutils/ext/snprintk.c:473
    2910:	37f80a69 	tbnz	w9, #31, 2a5c <kprintf.constprop.0+0xd6c>
    2914:	91002d01 	add	x1, x8, #0xb
    2918:	aa0803e0 	mov	x0, x8
    291c:	927df028 	and	x8, x1, #0xfffffffffffffff8
    2920:	b9400000 	ldr	w0, [x0]
/home/atmark/optee-build/imx-boot/imx-optee-os/lib/libutils/ext/snprintk.c:488
    2924:	52800004 	mov	w4, #0x0                   	// #0
    2928:	17fffddb 	b	2094 <kprintf.constprop.0+0x3a4>
/home/atmark/optee-build/imx-boot/imx-optee-os/lib/libutils/ext/snprintk.c:390
    292c:	37f80e69 	tbnz	w9, #31, 2af8 <kprintf.constprop.0+0xe08>
    2930:	91002d01 	add	x1, x8, #0xb
    2934:	aa0803e0 	mov	x0, x8
    2938:	927df028 	and	x8, x1, #0xfffffffffffffff8
    293c:	b9800000 	ldrsw	x0, [x0]
/home/atmark/optee-build/imx-boot/imx-optee-os/lib/libutils/ext/snprintk.c:391
    2940:	aa0003e1 	mov	x1, x0
    2944:	17fffdd3 	b	2090 <kprintf.constprop.0+0x3a0>
/home/atmark/optee-build/imx-boot/imx-optee-os/lib/libutils/ext/snprintk.c:481
    2948:	37f80269 	tbnz	w9, #31, 2994 <kprintf.constprop.0+0xca4>
    294c:	aa0803e0 	mov	x0, x8
    2950:	91002d01 	add	x1, x8, #0xb
    2954:	927df028 	and	x8, x1, #0xfffffffffffffff8
    2958:	b9400000 	ldr	w0, [x0]
    295c:	17fffebc 	b	244c <kprintf.constprop.0+0x75c>
/home/atmark/optee-build/imx-boot/imx-optee-os/lib/libutils/ext/snprintk.c:427
    2960:	8b29c1a0 	add	x0, x13, w9, sxtw
    2964:	2a0103e9 	mov	w9, w1
    2968:	17ffff4e 	b	26a0 <kprintf.constprop.0+0x9b0>
/home/atmark/optee-build/imx-boot/imx-optee-os/lib/libutils/ext/snprintk.c:329
    296c:	37f80329 	tbnz	w9, #31, 29d0 <kprintf.constprop.0+0xce0>
    2970:	91002d05 	add	x5, x8, #0xb
    2974:	aa0803e0 	mov	x0, x8
    2978:	927df0a8 	and	x8, x5, #0xfffffffffffffff8
/home/atmark/optee-build/imx-boot/imx-optee-os/lib/libutils/ext/snprintk.c:330
    297c:	b9400018 	ldr	w24, [x0]
/home/atmark/optee-build/imx-boot/imx-optee-os/lib/libutils/ext/snprintk.c:296
    2980:	394006ae 	ldrb	w14, [x21, #1]
/home/atmark/optee-build/imx-boot/imx-optee-os/lib/libutils/ext/snprintk.c:328
    2984:	aa0303f5 	mov	x21, x3
/home/atmark/optee-build/imx-boot/imx-optee-os/lib/libutils/ext/snprintk.c:330
    2988:	7100031f 	cmp	w24, #0x0
    298c:	1a82a318 	csel	w24, w24, w2, ge  // ge = tcont
/home/atmark/optee-build/imx-boot/imx-optee-os/lib/libutils/ext/snprintk.c:331
    2990:	17fffcfd 	b	1d84 <kprintf.constprop.0+0x94>
/home/atmark/optee-build/imx-boot/imx-optee-os/lib/libutils/ext/snprintk.c:481
    2994:	11002121 	add	w1, w9, #0x8
    2998:	7100003f 	cmp	w1, #0x0
    299c:	54000c4d 	b.le	2b24 <kprintf.constprop.0+0xe34>
    29a0:	aa0803e0 	mov	x0, x8
    29a4:	91002d02 	add	x2, x8, #0xb
    29a8:	2a0103e9 	mov	w9, w1
    29ac:	927df048 	and	x8, x2, #0xfffffffffffffff8
    29b0:	b9400000 	ldr	w0, [x0]
    29b4:	17fffea6 	b	244c <kprintf.constprop.0+0x75c>
/home/atmark/optee-build/imx-boot/imx-optee-os/lib/libutils/ext/snprintk.c:409
    29b8:	11002121 	add	w1, w9, #0x8
    29bc:	7100003f 	cmp	w1, #0x0
    29c0:	54000c0d 	b.le	2b40 <kprintf.constprop.0+0xe50>
    29c4:	91003d00 	add	x0, x8, #0xf
    29c8:	927df000 	and	x0, x0, #0xfffffffffffffff8
    29cc:	17ffff85 	b	27e0 <kprintf.constprop.0+0xaf0>
/home/atmark/optee-build/imx-boot/imx-optee-os/lib/libutils/ext/snprintk.c:329
    29d0:	11002125 	add	w5, w9, #0x8
    29d4:	710000bf 	cmp	w5, #0x0
    29d8:	54000aed 	b.le	2b34 <kprintf.constprop.0+0xe44>
    29dc:	91002d06 	add	x6, x8, #0xb
    29e0:	aa0803e0 	mov	x0, x8
    29e4:	2a0503e9 	mov	w9, w5
    29e8:	927df0c8 	and	x8, x6, #0xfffffffffffffff8
    29ec:	17ffffe4 	b	297c <kprintf.constprop.0+0xc8c>
/home/atmark/optee-build/imx-boot/imx-optee-os/lib/libutils/ext/snprintk.c:411
    29f0:	37f80789 	tbnz	w9, #31, 2ae0 <kprintf.constprop.0+0xdf0>
    29f4:	91003d00 	add	x0, x8, #0xf
    29f8:	2a0903e1 	mov	w1, w9
    29fc:	927df000 	and	x0, x0, #0xfffffffffffffff8
    2a00:	f9400102 	ldr	x2, [x8]
    2a04:	2a0103e9 	mov	w9, w1
    2a08:	aa0003e8 	mov	x8, x0
    2a0c:	b900005c 	str	w28, [x2]
    2a10:	17fffcd0 	b	1d50 <kprintf.constprop.0+0x60>
/home/atmark/optee-build/imx-boot/imx-optee-os/lib/libutils/ext/snprintk.c:417
    2a14:	11002121 	add	w1, w9, #0x8
    2a18:	7100003f 	cmp	w1, #0x0
    2a1c:	54000b6d 	b.le	2b88 <kprintf.constprop.0+0xe98>
    2a20:	aa0803e0 	mov	x0, x8
    2a24:	91002d02 	add	x2, x8, #0xb
    2a28:	2a0103e9 	mov	w9, w1
    2a2c:	927df048 	and	x8, x2, #0xfffffffffffffff8
    2a30:	79400000 	ldrh	w0, [x0]
    2a34:	17fffdd4 	b	2184 <kprintf.constprop.0+0x494>
/home/atmark/optee-build/imx-boot/imx-optee-os/lib/libutils/ext/snprintk.c:481
    2a38:	11002121 	add	w1, w9, #0x8
    2a3c:	7100003f 	cmp	w1, #0x0
    2a40:	5400090d 	b.le	2b60 <kprintf.constprop.0+0xe70>
    2a44:	aa0803e0 	mov	x0, x8
    2a48:	91002d02 	add	x2, x8, #0xb
    2a4c:	2a0103e9 	mov	w9, w1
    2a50:	927df048 	and	x8, x2, #0xfffffffffffffff8
    2a54:	79400000 	ldrh	w0, [x0]
    2a58:	17fffe7d 	b	244c <kprintf.constprop.0+0x75c>
/home/atmark/optee-build/imx-boot/imx-optee-os/lib/libutils/ext/snprintk.c:473
    2a5c:	11002121 	add	w1, w9, #0x8
    2a60:	7100003f 	cmp	w1, #0x0
    2a64:	54000a2d 	b.le	2ba8 <kprintf.constprop.0+0xeb8>
    2a68:	91002d02 	add	x2, x8, #0xb
    2a6c:	aa0803e0 	mov	x0, x8
    2a70:	2a0103e9 	mov	w9, w1
    2a74:	927df048 	and	x8, x2, #0xfffffffffffffff8
    2a78:	17ffffaa 	b	2920 <kprintf.constprop.0+0xc30>
    2a7c:	11002121 	add	w1, w9, #0x8
    2a80:	7100003f 	cmp	w1, #0x0
    2a84:	5400076d 	b.le	2b70 <kprintf.constprop.0+0xe80>
    2a88:	91002d02 	add	x2, x8, #0xb
    2a8c:	aa0803e0 	mov	x0, x8
    2a90:	2a0103e9 	mov	w9, w1
    2a94:	927df048 	and	x8, x2, #0xfffffffffffffff8
    2a98:	17ffff34 	b	2768 <kprintf.constprop.0+0xa78>
/home/atmark/optee-build/imx-boot/imx-optee-os/lib/libutils/ext/snprintk.c:417
    2a9c:	11002121 	add	w1, w9, #0x8
    2aa0:	7100003f 	cmp	w1, #0x0
    2aa4:	540007ad 	b.le	2b98 <kprintf.constprop.0+0xea8>
    2aa8:	aa0803e0 	mov	x0, x8
    2aac:	91002d02 	add	x2, x8, #0xb
    2ab0:	2a0103e9 	mov	w9, w1
    2ab4:	927df048 	and	x8, x2, #0xfffffffffffffff8
    2ab8:	b9400000 	ldr	w0, [x0]
    2abc:	17fffdb2 	b	2184 <kprintf.constprop.0+0x494>
/home/atmark/optee-build/imx-boot/imx-optee-os/lib/libutils/ext/snprintk.c:390
    2ac0:	11002121 	add	w1, w9, #0x8
    2ac4:	7100003f 	cmp	w1, #0x0
    2ac8:	540005ad 	b.le	2b7c <kprintf.constprop.0+0xe8c>
    2acc:	91002d02 	add	x2, x8, #0xb
    2ad0:	aa0803e0 	mov	x0, x8
    2ad4:	2a0103e9 	mov	w9, w1
    2ad8:	927df048 	and	x8, x2, #0xfffffffffffffff8
    2adc:	17ffff2d 	b	2790 <kprintf.constprop.0+0xaa0>
/home/atmark/optee-build/imx-boot/imx-optee-os/lib/libutils/ext/snprintk.c:411
    2ae0:	11002121 	add	w1, w9, #0x8
    2ae4:	7100003f 	cmp	w1, #0x0
    2ae8:	5400066d 	b.le	2bb4 <kprintf.constprop.0+0xec4>
    2aec:	91003d00 	add	x0, x8, #0xf
    2af0:	927df000 	and	x0, x0, #0xfffffffffffffff8
    2af4:	17ffffc3 	b	2a00 <kprintf.constprop.0+0xd10>
/home/atmark/optee-build/imx-boot/imx-optee-os/lib/libutils/ext/snprintk.c:390
    2af8:	11002121 	add	w1, w9, #0x8
    2afc:	7100003f 	cmp	w1, #0x0
    2b00:	5400026d 	b.le	2b4c <kprintf.constprop.0+0xe5c>
    2b04:	91002d02 	add	x2, x8, #0xb
    2b08:	aa0803e0 	mov	x0, x8
    2b0c:	2a0103e9 	mov	w9, w1
    2b10:	927df048 	and	x8, x2, #0xfffffffffffffff8
    2b14:	17ffff8a 	b	293c <kprintf.constprop.0+0xc4c>
/home/atmark/optee-build/imx-boot/imx-optee-os/lib/libutils/ext/snprintk.c:604
    2b18:	2a0003e1 	mov	w1, w0
    2b1c:	2a0203e0 	mov	w0, w2
    2b20:	17fffd32 	b	1fe8 <kprintf.constprop.0+0x2f8>
/home/atmark/optee-build/imx-boot/imx-optee-os/lib/libutils/ext/snprintk.c:481
    2b24:	8b29c1a0 	add	x0, x13, w9, sxtw
    2b28:	2a0103e9 	mov	w9, w1
    2b2c:	b9400000 	ldr	w0, [x0]
    2b30:	17fffe47 	b	244c <kprintf.constprop.0+0x75c>
/home/atmark/optee-build/imx-boot/imx-optee-os/lib/libutils/ext/snprintk.c:329
    2b34:	8b29c1a0 	add	x0, x13, w9, sxtw
    2b38:	2a0503e9 	mov	w9, w5
    2b3c:	17ffff90 	b	297c <kprintf.constprop.0+0xc8c>
/home/atmark/optee-build/imx-boot/imx-optee-os/lib/libutils/ext/snprintk.c:409
    2b40:	aa0803e0 	mov	x0, x8
    2b44:	8b29c1a8 	add	x8, x13, w9, sxtw
    2b48:	17ffff26 	b	27e0 <kprintf.constprop.0+0xaf0>
/home/atmark/optee-build/imx-boot/imx-optee-os/lib/libutils/ext/snprintk.c:390
    2b4c:	8b29c1a0 	add	x0, x13, w9, sxtw
    2b50:	2a0103e9 	mov	w9, w1
    2b54:	17ffff7a 	b	293c <kprintf.constprop.0+0xc4c>
    2b58:	aa0203f3 	mov	x19, x2
    2b5c:	17fffca6 	b	1df4 <kprintf.constprop.0+0x104>
/home/atmark/optee-build/imx-boot/imx-optee-os/lib/libutils/ext/snprintk.c:481
    2b60:	8b29c1a0 	add	x0, x13, w9, sxtw
    2b64:	2a0103e9 	mov	w9, w1
    2b68:	79400000 	ldrh	w0, [x0]
    2b6c:	17fffe38 	b	244c <kprintf.constprop.0+0x75c>
/home/atmark/optee-build/imx-boot/imx-optee-os/lib/libutils/ext/snprintk.c:473
    2b70:	8b29c1a0 	add	x0, x13, w9, sxtw
    2b74:	2a0103e9 	mov	w9, w1
    2b78:	17fffefc 	b	2768 <kprintf.constprop.0+0xa78>
/home/atmark/optee-build/imx-boot/imx-optee-os/lib/libutils/ext/snprintk.c:390
    2b7c:	8b29c1a0 	add	x0, x13, w9, sxtw
    2b80:	2a0103e9 	mov	w9, w1
    2b84:	17ffff03 	b	2790 <kprintf.constprop.0+0xaa0>
/home/atmark/optee-build/imx-boot/imx-optee-os/lib/libutils/ext/snprintk.c:417
    2b88:	8b29c1a0 	add	x0, x13, w9, sxtw
    2b8c:	2a0103e9 	mov	w9, w1
    2b90:	79400000 	ldrh	w0, [x0]
    2b94:	17fffd7c 	b	2184 <kprintf.constprop.0+0x494>
    2b98:	8b29c1a0 	add	x0, x13, w9, sxtw
    2b9c:	2a0103e9 	mov	w9, w1
    2ba0:	b9400000 	ldr	w0, [x0]
    2ba4:	17fffd78 	b	2184 <kprintf.constprop.0+0x494>
/home/atmark/optee-build/imx-boot/imx-optee-os/lib/libutils/ext/snprintk.c:473
    2ba8:	8b29c1a0 	add	x0, x13, w9, sxtw
    2bac:	2a0103e9 	mov	w9, w1
    2bb0:	17ffff5c 	b	2920 <kprintf.constprop.0+0xc30>
/home/atmark/optee-build/imx-boot/imx-optee-os/lib/libutils/ext/snprintk.c:411
    2bb4:	aa0803e0 	mov	x0, x8
    2bb8:	8b29c1a8 	add	x8, x13, w9, sxtw
    2bbc:	17ffff91 	b	2a00 <kprintf.constprop.0+0xd10>

0000000000002bc0 <__vsprintf>:
__vsprintf():
/home/atmark/optee-build/imx-boot/imx-optee-os/lib/libutils/ext/snprintk.c:155
    2bc0:	aa0203e5 	mov	x5, x2
    2bc4:	a9bd7bfd 	stp	x29, x30, [sp, #-48]!
/home/atmark/optee-build/imx-boot/imx-optee-os/lib/libutils/ext/snprintk.c:156
    2bc8:	aa0003e2 	mov	x2, x0
/home/atmark/optee-build/imx-boot/imx-optee-os/lib/libutils/ext/snprintk.c:155
    2bcc:	910003fd 	mov	x29, sp
/home/atmark/optee-build/imx-boot/imx-optee-os/lib/libutils/ext/snprintk.c:156
    2bd0:	a9401ca6 	ldp	x6, x7, [x5]
    2bd4:	f9000be6 	str	x6, [sp, #16]
    2bd8:	910043e3 	add	x3, sp, #0x10
    2bdc:	aa0103e0 	mov	x0, x1
    2be0:	f94008a6 	ldr	x6, [x5, #16]
    2be4:	f9000fe7 	str	x7, [sp, #24]
    2be8:	52800004 	mov	w4, #0x0                   	// #0
    2bec:	d2800001 	mov	x1, #0x0                   	// #0
    2bf0:	f9400ca5 	ldr	x5, [x5, #24]
    2bf4:	a90217e6 	stp	x6, x5, [sp, #32]
    2bf8:	97fffc3e 	bl	1cf0 <kprintf.constprop.0>
/home/atmark/optee-build/imx-boot/imx-optee-os/lib/libutils/ext/snprintk.c:157
    2bfc:	a8c37bfd 	ldp	x29, x30, [sp], #48
    2c00:	d65f03c0 	ret
	...

0000000000002c10 <memchr>:
memchr():
/home/atmark/optee-build/imx-boot/imx-optee-os/lib/libutils/isoc/newlib/memchr.c:109
    2c10:	12001c24 	and	w4, w1, #0xff
/home/atmark/optee-build/imx-boot/imx-optee-os/lib/libutils/isoc/newlib/memchr.c:116
    2c14:	f240081f 	tst	x0, #0x7
    2c18:	540001c0 	b.eq	2c50 <memchr+0x40>  // b.none
/home/atmark/optee-build/imx-boot/imx-optee-os/lib/libutils/isoc/newlib/memchr.c:117
    2c1c:	d1000443 	sub	x3, x2, #0x1
    2c20:	b5000102 	cbnz	x2, 2c40 <memchr+0x30>
    2c24:	14000010 	b	2c64 <memchr+0x54>
/home/atmark/optee-build/imx-boot/imx-optee-os/lib/libutils/isoc/newlib/memchr.c:121
    2c28:	91000400 	add	x0, x0, #0x1
/home/atmark/optee-build/imx-boot/imx-optee-os/lib/libutils/isoc/newlib/memchr.c:116
    2c2c:	f240081f 	tst	x0, #0x7
    2c30:	54000140 	b.eq	2c58 <memchr+0x48>  // b.none
/home/atmark/optee-build/imx-boot/imx-optee-os/lib/libutils/isoc/newlib/memchr.c:117
    2c34:	d1000463 	sub	x3, x3, #0x1
    2c38:	b100047f 	cmn	x3, #0x1
    2c3c:	54000140 	b.eq	2c64 <memchr+0x54>  // b.none
/home/atmark/optee-build/imx-boot/imx-optee-os/lib/libutils/isoc/newlib/memchr.c:119
    2c40:	39400002 	ldrb	w2, [x0]
    2c44:	6b04005f 	cmp	w2, w4
    2c48:	54ffff01 	b.ne	2c28 <memchr+0x18>  // b.any
/home/atmark/optee-build/imx-boot/imx-optee-os/lib/libutils/isoc/newlib/memchr.c:160
    2c4c:	d65f03c0 	ret
/home/atmark/optee-build/imx-boot/imx-optee-os/lib/libutils/isoc/newlib/memchr.c:116
    2c50:	aa0203e3 	mov	x3, x2
    2c54:	d503201f 	nop
/home/atmark/optee-build/imx-boot/imx-optee-os/lib/libutils/isoc/newlib/memchr.c:124
    2c58:	f1001c7f 	cmp	x3, #0x7
    2c5c:	540001a8 	b.hi	2c90 <memchr+0x80>  // b.pmore
/home/atmark/optee-build/imx-boot/imx-optee-os/lib/libutils/isoc/newlib/memchr.c:153
    2c60:	b5000063 	cbnz	x3, 2c6c <memchr+0x5c>
/home/atmark/optee-build/imx-boot/imx-optee-os/lib/libutils/isoc/newlib/memchr.c:118
    2c64:	d2800000 	mov	x0, #0x0                   	// #0
/home/atmark/optee-build/imx-boot/imx-optee-os/lib/libutils/isoc/newlib/memchr.c:160
    2c68:	d65f03c0 	ret
    2c6c:	8b030003 	add	x3, x0, x3
    2c70:	14000004 	b	2c80 <memchr+0x70>
/home/atmark/optee-build/imx-boot/imx-optee-os/lib/libutils/isoc/newlib/memchr.c:156
    2c74:	91000400 	add	x0, x0, #0x1
/home/atmark/optee-build/imx-boot/imx-optee-os/lib/libutils/isoc/newlib/memchr.c:153
    2c78:	eb00007f 	cmp	x3, x0
    2c7c:	54ffff40 	b.eq	2c64 <memchr+0x54>  // b.none
/home/atmark/optee-build/imx-boot/imx-optee-os/lib/libutils/isoc/newlib/memchr.c:154
    2c80:	39400001 	ldrb	w1, [x0]
    2c84:	6b04003f 	cmp	w1, w4
    2c88:	54ffff61 	b.ne	2c74 <memchr+0x64>  // b.any
/home/atmark/optee-build/imx-boot/imx-optee-os/lib/libutils/isoc/newlib/memchr.c:160
    2c8c:	d65f03c0 	ret
/home/atmark/optee-build/imx-boot/imx-optee-os/lib/libutils/isoc/newlib/memchr.c:134
    2c90:	12001c22 	and	w2, w1, #0xff
    2c94:	53181c21 	ubfiz	w1, w1, #8, #8
    2c98:	2a020021 	orr	w1, w1, w2
/home/atmark/optee-build/imx-boot/imx-optee-os/lib/libutils/isoc/newlib/memchr.c:140
    2c9c:	b207dbe6 	mov	x6, #0xfefefefefefefefe    	// #-72340172838076674
    2ca0:	f29fdfe6 	movk	x6, #0xfeff
/home/atmark/optee-build/imx-boot/imx-optee-os/lib/libutils/isoc/newlib/memchr.c:134
    2ca4:	93407c25 	sxtw	x5, w1
/home/atmark/optee-build/imx-boot/imx-optee-os/lib/libutils/isoc/newlib/memchr.c:135
    2ca8:	93707c22 	sbfiz	x2, x1, #16, #32
    2cac:	aa050042 	orr	x2, x2, x5
/home/atmark/optee-build/imx-boot/imx-optee-os/lib/libutils/isoc/newlib/memchr.c:137
    2cb0:	aa028042 	orr	x2, x2, x2, lsl #32
/home/atmark/optee-build/imx-boot/imx-optee-os/lib/libutils/isoc/newlib/memchr.c:136
    2cb4:	d503201f 	nop
/home/atmark/optee-build/imx-boot/imx-optee-os/lib/libutils/isoc/newlib/memchr.c:140
    2cb8:	f9400001 	ldr	x1, [x0]
    2cbc:	ca010041 	eor	x1, x2, x1
    2cc0:	8b060025 	add	x5, x1, x6
    2cc4:	8a2100a1 	bic	x1, x5, x1
    2cc8:	f201c03f 	tst	x1, #0x8080808080808080
    2ccc:	54fffd01 	b.ne	2c6c <memchr+0x5c>  // b.any
